Archive member included to satisfy reference by file (symbol)

c:/software/altera/18.1/nios2eds/bin/gnu/h-x86_64-mingw32/bin/../lib/gcc/nios2-elf/5.3.0\libgcc.a(lib2-divmod.o)
                              obj/default/ff.o (__udivsi3)
c:/software/altera/18.1/nios2eds/bin/gnu/h-x86_64-mingw32/bin/../lib/gcc/nios2-elf/5.3.0/../../../../../H-x86_64-mingw32/nios2-elf/lib\libc.a(lib_a-getc.o)
                              obj/default/uart_nios2.o (getc)
c:/software/altera/18.1/nios2eds/bin/gnu/h-x86_64-mingw32/bin/../lib/gcc/nios2-elf/5.3.0/../../../../../H-x86_64-mingw32/nios2-elf/lib\libc.a(lib_a-impure.o)
                              obj/default/uart_nios2.o (_impure_ptr)
c:/software/altera/18.1/nios2eds/bin/gnu/h-x86_64-mingw32/bin/../lib/gcc/nios2-elf/5.3.0/../../../../../H-x86_64-mingw32/nios2-elf/lib\libc.a(lib_a-putchar.o)
                              obj/default/uart_nios2.o (putchar)
c:/software/altera/18.1/nios2eds/bin/gnu/h-x86_64-mingw32/bin/../lib/gcc/nios2-elf/5.3.0/../../../../../H-x86_64-mingw32/nios2-elf/lib\libc.a(lib_a-rget.o)
                              c:/software/altera/18.1/nios2eds/bin/gnu/h-x86_64-mingw32/bin/../lib/gcc/nios2-elf/5.3.0/../../../../../H-x86_64-mingw32/nios2-elf/lib\libc.a(lib_a-getc.o) (__srget_r)
c:/software/altera/18.1/nios2eds/bin/gnu/h-x86_64-mingw32/bin/../lib/gcc/nios2-elf/5.3.0/../../../../../H-x86_64-mingw32/nios2-elf/lib\libc.a(lib_a-findfp.o)
                              c:/software/altera/18.1/nios2eds/bin/gnu/h-x86_64-mingw32/bin/../lib/gcc/nios2-elf/5.3.0/../../../../../H-x86_64-mingw32/nios2-elf/lib\libc.a(lib_a-getc.o) (__sinit)
c:/software/altera/18.1/nios2eds/bin/gnu/h-x86_64-mingw32/bin/../lib/gcc/nios2-elf/5.3.0/../../../../../H-x86_64-mingw32/nios2-elf/lib\libc.a(lib_a-fwalk.o)
                              c:/software/altera/18.1/nios2eds/bin/gnu/h-x86_64-mingw32/bin/../lib/gcc/nios2-elf/5.3.0/../../../../../H-x86_64-mingw32/nios2-elf/lib\libc.a(lib_a-findfp.o) (_fwalk)
c:/software/altera/18.1/nios2eds/bin/gnu/h-x86_64-mingw32/bin/../lib/gcc/nios2-elf/5.3.0/../../../../../H-x86_64-mingw32/nios2-elf/lib\libc.a(lib_a-mallocr.o)
                              c:/software/altera/18.1/nios2eds/bin/gnu/h-x86_64-mingw32/bin/../lib/gcc/nios2-elf/5.3.0/../../../../../H-x86_64-mingw32/nios2-elf/lib\libc.a(lib_a-findfp.o) (_malloc_r)
c:/software/altera/18.1/nios2eds/bin/gnu/h-x86_64-mingw32/bin/../lib/gcc/nios2-elf/5.3.0/../../../../../H-x86_64-mingw32/nios2-elf/lib\libc.a(lib_a-memset.o)
                              c:/software/altera/18.1/nios2eds/bin/gnu/h-x86_64-mingw32/bin/../lib/gcc/nios2-elf/5.3.0/../../../../../H-x86_64-mingw32/nios2-elf/lib\libc.a(lib_a-findfp.o) (memset)
c:/software/altera/18.1/nios2eds/bin/gnu/h-x86_64-mingw32/bin/../lib/gcc/nios2-elf/5.3.0/../../../../../H-x86_64-mingw32/nios2-elf/lib\libc.a(lib_a-putc.o)
                              c:/software/altera/18.1/nios2eds/bin/gnu/h-x86_64-mingw32/bin/../lib/gcc/nios2-elf/5.3.0/../../../../../H-x86_64-mingw32/nios2-elf/lib\libc.a(lib_a-putchar.o) (_putc_r)
c:/software/altera/18.1/nios2eds/bin/gnu/h-x86_64-mingw32/bin/../lib/gcc/nios2-elf/5.3.0/../../../../../H-x86_64-mingw32/nios2-elf/lib\libc.a(lib_a-refill.o)
                              c:/software/altera/18.1/nios2eds/bin/gnu/h-x86_64-mingw32/bin/../lib/gcc/nios2-elf/5.3.0/../../../../../H-x86_64-mingw32/nios2-elf/lib\libc.a(lib_a-rget.o) (__srefill_r)
c:/software/altera/18.1/nios2eds/bin/gnu/h-x86_64-mingw32/bin/../lib/gcc/nios2-elf/5.3.0/../../../../../H-x86_64-mingw32/nios2-elf/lib\libc.a(lib_a-sbrkr.o)
                              c:/software/altera/18.1/nios2eds/bin/gnu/h-x86_64-mingw32/bin/../lib/gcc/nios2-elf/5.3.0/../../../../../H-x86_64-mingw32/nios2-elf/lib\libc.a(lib_a-mallocr.o) (_sbrk_r)
c:/software/altera/18.1/nios2eds/bin/gnu/h-x86_64-mingw32/bin/../lib/gcc/nios2-elf/5.3.0/../../../../../H-x86_64-mingw32/nios2-elf/lib\libc.a(lib_a-stdio.o)
                              c:/software/altera/18.1/nios2eds/bin/gnu/h-x86_64-mingw32/bin/../lib/gcc/nios2-elf/5.3.0/../../../../../H-x86_64-mingw32/nios2-elf/lib\libc.a(lib_a-findfp.o) (__sread)
c:/software/altera/18.1/nios2eds/bin/gnu/h-x86_64-mingw32/bin/../lib/gcc/nios2-elf/5.3.0/../../../../../H-x86_64-mingw32/nios2-elf/lib\libc.a(lib_a-wbuf.o)
                              c:/software/altera/18.1/nios2eds/bin/gnu/h-x86_64-mingw32/bin/../lib/gcc/nios2-elf/5.3.0/../../../../../H-x86_64-mingw32/nios2-elf/lib\libc.a(lib_a-putc.o) (__swbuf_r)
c:/software/altera/18.1/nios2eds/bin/gnu/h-x86_64-mingw32/bin/../lib/gcc/nios2-elf/5.3.0/../../../../../H-x86_64-mingw32/nios2-elf/lib\libc.a(lib_a-writer.o)
                              c:/software/altera/18.1/nios2eds/bin/gnu/h-x86_64-mingw32/bin/../lib/gcc/nios2-elf/5.3.0/../../../../../H-x86_64-mingw32/nios2-elf/lib\libc.a(lib_a-stdio.o) (_write_r)
c:/software/altera/18.1/nios2eds/bin/gnu/h-x86_64-mingw32/bin/../lib/gcc/nios2-elf/5.3.0/../../../../../H-x86_64-mingw32/nios2-elf/lib\libc.a(lib_a-wsetup.o)
                              c:/software/altera/18.1/nios2eds/bin/gnu/h-x86_64-mingw32/bin/../lib/gcc/nios2-elf/5.3.0/../../../../../H-x86_64-mingw32/nios2-elf/lib\libc.a(lib_a-wbuf.o) (__swsetup_r)
c:/software/altera/18.1/nios2eds/bin/gnu/h-x86_64-mingw32/bin/../lib/gcc/nios2-elf/5.3.0/../../../../../H-x86_64-mingw32/nios2-elf/lib\libc.a(closer.o)
                              c:/software/altera/18.1/nios2eds/bin/gnu/h-x86_64-mingw32/bin/../lib/gcc/nios2-elf/5.3.0/../../../../../H-x86_64-mingw32/nios2-elf/lib\libc.a(lib_a-stdio.o) (_close_r)
c:/software/altera/18.1/nios2eds/bin/gnu/h-x86_64-mingw32/bin/../lib/gcc/nios2-elf/5.3.0/../../../../../H-x86_64-mingw32/nios2-elf/lib\libc.a(lib_a-fclose.o)
                              c:/software/altera/18.1/nios2eds/bin/gnu/h-x86_64-mingw32/bin/../lib/gcc/nios2-elf/5.3.0/../../../../../H-x86_64-mingw32/nios2-elf/lib\libc.a(lib_a-findfp.o) (_fclose_r)
c:/software/altera/18.1/nios2eds/bin/gnu/h-x86_64-mingw32/bin/../lib/gcc/nios2-elf/5.3.0/../../../../../H-x86_64-mingw32/nios2-elf/lib\libc.a(lib_a-fflush.o)
                              c:/software/altera/18.1/nios2eds/bin/gnu/h-x86_64-mingw32/bin/../lib/gcc/nios2-elf/5.3.0/../../../../../H-x86_64-mingw32/nios2-elf/lib\libc.a(lib_a-refill.o) (__sflush_r)
c:/software/altera/18.1/nios2eds/bin/gnu/h-x86_64-mingw32/bin/../lib/gcc/nios2-elf/5.3.0/../../../../../H-x86_64-mingw32/nios2-elf/lib\libc.a(lib_a-freer.o)
                              c:/software/altera/18.1/nios2eds/bin/gnu/h-x86_64-mingw32/bin/../lib/gcc/nios2-elf/5.3.0/../../../../../H-x86_64-mingw32/nios2-elf/lib\libc.a(lib_a-mallocr.o) (_free_r)
c:/software/altera/18.1/nios2eds/bin/gnu/h-x86_64-mingw32/bin/../lib/gcc/nios2-elf/5.3.0/../../../../../H-x86_64-mingw32/nios2-elf/lib\libc.a(lib_a-int_errno.o)
                              c:/software/altera/18.1/nios2eds/bin/gnu/h-x86_64-mingw32/bin/../lib/gcc/nios2-elf/5.3.0/../../../../../H-x86_64-mingw32/nios2-elf/lib\libc.a(lib_a-sbrkr.o) (errno)
c:/software/altera/18.1/nios2eds/bin/gnu/h-x86_64-mingw32/bin/../lib/gcc/nios2-elf/5.3.0/../../../../../H-x86_64-mingw32/nios2-elf/lib\libc.a(lib_a-lseekr.o)
                              c:/software/altera/18.1/nios2eds/bin/gnu/h-x86_64-mingw32/bin/../lib/gcc/nios2-elf/5.3.0/../../../../../H-x86_64-mingw32/nios2-elf/lib\libc.a(lib_a-stdio.o) (_lseek_r)
c:/software/altera/18.1/nios2eds/bin/gnu/h-x86_64-mingw32/bin/../lib/gcc/nios2-elf/5.3.0/../../../../../H-x86_64-mingw32/nios2-elf/lib\libc.a(lib_a-makebuf.o)
                              c:/software/altera/18.1/nios2eds/bin/gnu/h-x86_64-mingw32/bin/../lib/gcc/nios2-elf/5.3.0/../../../../../H-x86_64-mingw32/nios2-elf/lib\libc.a(lib_a-refill.o) (__smakebuf_r)
c:/software/altera/18.1/nios2eds/bin/gnu/h-x86_64-mingw32/bin/../lib/gcc/nios2-elf/5.3.0/../../../../../H-x86_64-mingw32/nios2-elf/lib\libc.a(lib_a-readr.o)
                              c:/software/altera/18.1/nios2eds/bin/gnu/h-x86_64-mingw32/bin/../lib/gcc/nios2-elf/5.3.0/../../../../../H-x86_64-mingw32/nios2-elf/lib\libc.a(lib_a-stdio.o) (_read_r)
c:/software/altera/18.1/nios2eds/bin/gnu/h-x86_64-mingw32/bin/../lib/gcc/nios2-elf/5.3.0/../../../../../H-x86_64-mingw32/nios2-elf/lib\libc.a(lib_a-fstatr.o)
                              c:/software/altera/18.1/nios2eds/bin/gnu/h-x86_64-mingw32/bin/../lib/gcc/nios2-elf/5.3.0/../../../../../H-x86_64-mingw32/nios2-elf/lib\libc.a(lib_a-makebuf.o) (_fstat_r)
c:/software/altera/18.1/nios2eds/bin/gnu/h-x86_64-mingw32/bin/../lib/gcc/nios2-elf/5.3.0/../../../../../H-x86_64-mingw32/nios2-elf/lib\libc.a(lib_a-isattyr.o)
                              c:/software/altera/18.1/nios2eds/bin/gnu/h-x86_64-mingw32/bin/../lib/gcc/nios2-elf/5.3.0/../../../../../H-x86_64-mingw32/nios2-elf/lib\libc.a(lib_a-makebuf.o) (_isatty_r)
../Lab2_LOOP_AUDIO_bsp/\libhal_bsp.a(alt_close.o)
                              c:/software/altera/18.1/nios2eds/bin/gnu/h-x86_64-mingw32/bin/../lib/gcc/nios2-elf/5.3.0/../../../../../H-x86_64-mingw32/nios2-elf/lib\libc.a(closer.o) (close)
../Lab2_LOOP_AUDIO_bsp/\libhal_bsp.a(alt_dev.o)
                              ../Lab2_LOOP_AUDIO_bsp/\libhal_bsp.a(alt_close.o) (alt_fd_list)
../Lab2_LOOP_AUDIO_bsp/\libhal_bsp.a(alt_errno.o)
                              ../Lab2_LOOP_AUDIO_bsp/\libhal_bsp.a(alt_close.o) (alt_errno)
../Lab2_LOOP_AUDIO_bsp/\libhal_bsp.a(alt_fstat.o)
                              c:/software/altera/18.1/nios2eds/bin/gnu/h-x86_64-mingw32/bin/../lib/gcc/nios2-elf/5.3.0/../../../../../H-x86_64-mingw32/nios2-elf/lib\libc.a(lib_a-fstatr.o) (fstat)
../Lab2_LOOP_AUDIO_bsp/\libhal_bsp.a(alt_isatty.o)
                              c:/software/altera/18.1/nios2eds/bin/gnu/h-x86_64-mingw32/bin/../lib/gcc/nios2-elf/5.3.0/../../../../../H-x86_64-mingw32/nios2-elf/lib\libc.a(lib_a-isattyr.o) (isatty)
../Lab2_LOOP_AUDIO_bsp/\libhal_bsp.a(alt_load.o)
                              ../Lab2_LOOP_AUDIO_bsp//obj/HAL/src/crt0.o (alt_load)
../Lab2_LOOP_AUDIO_bsp/\libhal_bsp.a(alt_lseek.o)
                              c:/software/altera/18.1/nios2eds/bin/gnu/h-x86_64-mingw32/bin/../lib/gcc/nios2-elf/5.3.0/../../../../../H-x86_64-mingw32/nios2-elf/lib\libc.a(lib_a-lseekr.o) (lseek)
../Lab2_LOOP_AUDIO_bsp/\libhal_bsp.a(alt_main.o)
                              ../Lab2_LOOP_AUDIO_bsp//obj/HAL/src/crt0.o (alt_main)
../Lab2_LOOP_AUDIO_bsp/\libhal_bsp.a(alt_malloc_lock.o)
                              c:/software/altera/18.1/nios2eds/bin/gnu/h-x86_64-mingw32/bin/../lib/gcc/nios2-elf/5.3.0/../../../../../H-x86_64-mingw32/nios2-elf/lib\libc.a(lib_a-mallocr.o) (__malloc_lock)
../Lab2_LOOP_AUDIO_bsp/\libhal_bsp.a(alt_printf.o)
                              obj/default/hello_world.o (alt_printf)
../Lab2_LOOP_AUDIO_bsp/\libhal_bsp.a(alt_putchar.o)
                              ../Lab2_LOOP_AUDIO_bsp/\libhal_bsp.a(alt_printf.o) (alt_putchar)
../Lab2_LOOP_AUDIO_bsp/\libhal_bsp.a(alt_read.o)
                              c:/software/altera/18.1/nios2eds/bin/gnu/h-x86_64-mingw32/bin/../lib/gcc/nios2-elf/5.3.0/../../../../../H-x86_64-mingw32/nios2-elf/lib\libc.a(lib_a-readr.o) (read)
../Lab2_LOOP_AUDIO_bsp/\libhal_bsp.a(alt_release_fd.o)
                              ../Lab2_LOOP_AUDIO_bsp/\libhal_bsp.a(alt_close.o) (alt_release_fd)
../Lab2_LOOP_AUDIO_bsp/\libhal_bsp.a(alt_sbrk.o)
                              c:/software/altera/18.1/nios2eds/bin/gnu/h-x86_64-mingw32/bin/../lib/gcc/nios2-elf/5.3.0/../../../../../H-x86_64-mingw32/nios2-elf/lib\libc.a(lib_a-sbrkr.o) (sbrk)
../Lab2_LOOP_AUDIO_bsp/\libhal_bsp.a(alt_write.o)
                              c:/software/altera/18.1/nios2eds/bin/gnu/h-x86_64-mingw32/bin/../lib/gcc/nios2-elf/5.3.0/../../../../../H-x86_64-mingw32/nios2-elf/lib\libc.a(lib_a-writer.o) (write)
../Lab2_LOOP_AUDIO_bsp/\libhal_bsp.a(alt_sys_init.o)
                              ../Lab2_LOOP_AUDIO_bsp/\libhal_bsp.a(alt_main.o) (alt_irq_init)
../Lab2_LOOP_AUDIO_bsp/\libhal_bsp.a(altera_avalon_jtag_uart_fd.o)
                              ../Lab2_LOOP_AUDIO_bsp/\libhal_bsp.a(alt_sys_init.o) (altera_avalon_jtag_uart_read_fd)
../Lab2_LOOP_AUDIO_bsp/\libhal_bsp.a(altera_avalon_jtag_uart_read.o)
                              ../Lab2_LOOP_AUDIO_bsp/\libhal_bsp.a(altera_avalon_jtag_uart_fd.o) (altera_avalon_jtag_uart_read)
../Lab2_LOOP_AUDIO_bsp/\libhal_bsp.a(altera_avalon_jtag_uart_write.o)
                              ../Lab2_LOOP_AUDIO_bsp/\libhal_bsp.a(altera_avalon_jtag_uart_fd.o) (altera_avalon_jtag_uart_write)
../Lab2_LOOP_AUDIO_bsp/\libhal_bsp.a(altera_avalon_lcd_16207.o)
                              ../Lab2_LOOP_AUDIO_bsp/\libhal_bsp.a(alt_sys_init.o) (altera_avalon_lcd_16207_init)
../Lab2_LOOP_AUDIO_bsp/\libhal_bsp.a(altera_avalon_lcd_16207_fd.o)
                              ../Lab2_LOOP_AUDIO_bsp/\libhal_bsp.a(alt_sys_init.o) (altera_avalon_lcd_16207_write_fd)
../Lab2_LOOP_AUDIO_bsp/\libhal_bsp.a(altera_avalon_timer_sc.o)
                              ../Lab2_LOOP_AUDIO_bsp/\libhal_bsp.a(alt_sys_init.o) (alt_avalon_timer_sc_init)
../Lab2_LOOP_AUDIO_bsp/\libhal_bsp.a(altera_avalon_uart_fd.o)
                              ../Lab2_LOOP_AUDIO_bsp/\libhal_bsp.a(alt_sys_init.o) (altera_avalon_uart_read_fd)
../Lab2_LOOP_AUDIO_bsp/\libhal_bsp.a(altera_avalon_uart_init.o)
                              ../Lab2_LOOP_AUDIO_bsp/\libhal_bsp.a(alt_sys_init.o) (altera_avalon_uart_init)
../Lab2_LOOP_AUDIO_bsp/\libhal_bsp.a(altera_avalon_uart_read.o)
                              ../Lab2_LOOP_AUDIO_bsp/\libhal_bsp.a(altera_avalon_uart_fd.o) (altera_avalon_uart_read)
../Lab2_LOOP_AUDIO_bsp/\libhal_bsp.a(altera_avalon_uart_write.o)
                              ../Lab2_LOOP_AUDIO_bsp/\libhal_bsp.a(altera_avalon_uart_fd.o) (altera_avalon_uart_write)
../Lab2_LOOP_AUDIO_bsp/\libhal_bsp.a(altera_up_avalon_audio.o)
                              obj/default/hello_world.o (alt_up_audio_open_dev)
../Lab2_LOOP_AUDIO_bsp/\libhal_bsp.a(alt_alarm_start.o)
                              ../Lab2_LOOP_AUDIO_bsp/\libhal_bsp.a(altera_avalon_lcd_16207.o) (alt_alarm_start)
../Lab2_LOOP_AUDIO_bsp/\libhal_bsp.a(alt_dcache_flush_all.o)
                              ../Lab2_LOOP_AUDIO_bsp/\libhal_bsp.a(alt_load.o) (alt_dcache_flush_all)
../Lab2_LOOP_AUDIO_bsp/\libhal_bsp.a(alt_dev_llist_insert.o)
                              ../Lab2_LOOP_AUDIO_bsp/\libhal_bsp.a(alt_sys_init.o) (alt_dev_llist_insert)
../Lab2_LOOP_AUDIO_bsp/\libhal_bsp.a(alt_do_ctors.o)
                              ../Lab2_LOOP_AUDIO_bsp/\libhal_bsp.a(alt_main.o) (_do_ctors)
../Lab2_LOOP_AUDIO_bsp/\libhal_bsp.a(alt_do_dtors.o)
                              ../Lab2_LOOP_AUDIO_bsp/\libhal_bsp.a(alt_main.o) (_do_dtors)
../Lab2_LOOP_AUDIO_bsp/\libhal_bsp.a(alt_find_dev.o)
                              ../Lab2_LOOP_AUDIO_bsp/\libhal_bsp.a(altera_up_avalon_audio.o) (alt_find_dev)
../Lab2_LOOP_AUDIO_bsp/\libhal_bsp.a(alt_icache_flush_all.o)
                              ../Lab2_LOOP_AUDIO_bsp/\libhal_bsp.a(alt_load.o) (alt_icache_flush_all)
../Lab2_LOOP_AUDIO_bsp/\libhal_bsp.a(alt_io_redirect.o)
                              ../Lab2_LOOP_AUDIO_bsp/\libhal_bsp.a(alt_main.o) (alt_io_redirect)
../Lab2_LOOP_AUDIO_bsp/\libhal_bsp.a(alt_irq_register.o)
                              ../Lab2_LOOP_AUDIO_bsp/\libhal_bsp.a(altera_avalon_timer_sc.o) (alt_irq_register)
../Lab2_LOOP_AUDIO_bsp/\libhal_bsp.a(alt_irq_vars.o)
                              ../Lab2_LOOP_AUDIO_bsp/\libhal_bsp.a(alt_irq_register.o) (alt_irq_active)
../Lab2_LOOP_AUDIO_bsp/\libhal_bsp.a(alt_open.o)
                              ../Lab2_LOOP_AUDIO_bsp/\libhal_bsp.a(alt_io_redirect.o) (open)
../Lab2_LOOP_AUDIO_bsp/\libhal_bsp.a(alt_tick.o)
                              ../Lab2_LOOP_AUDIO_bsp/\libhal_bsp.a(altera_avalon_lcd_16207.o) (_alt_tick_rate)
../Lab2_LOOP_AUDIO_bsp/\libhal_bsp.a(alt_usleep.o)
                              ../Lab2_LOOP_AUDIO_bsp/\libhal_bsp.a(altera_avalon_lcd_16207.o) (usleep)
../Lab2_LOOP_AUDIO_bsp/\libhal_bsp.a(altera_nios2_gen2_irq.o)
                              ../Lab2_LOOP_AUDIO_bsp/\libhal_bsp.a(alt_sys_init.o) (altera_nios2_gen2_irq_init)
../Lab2_LOOP_AUDIO_bsp/\libhal_bsp.a(alt_busy_sleep.o)
                              ../Lab2_LOOP_AUDIO_bsp/\libhal_bsp.a(alt_usleep.o) (alt_busy_sleep)
../Lab2_LOOP_AUDIO_bsp/\libhal_bsp.a(alt_find_file.o)
                              ../Lab2_LOOP_AUDIO_bsp/\libhal_bsp.a(alt_open.o) (alt_find_file)
../Lab2_LOOP_AUDIO_bsp/\libhal_bsp.a(alt_get_fd.o)
                              ../Lab2_LOOP_AUDIO_bsp/\libhal_bsp.a(alt_open.o) (alt_get_fd)
../Lab2_LOOP_AUDIO_bsp/\libhal_bsp.a(alt_icache_flush.o)
                              ../Lab2_LOOP_AUDIO_bsp/\libhal_bsp.a(alt_icache_flush_all.o) (alt_icache_flush)
../Lab2_LOOP_AUDIO_bsp/\libhal_bsp.a(alt_irq_entry.o)
                              ../Lab2_LOOP_AUDIO_bsp/\libhal_bsp.a(alt_irq_register.o) (alt_irq_entry)
../Lab2_LOOP_AUDIO_bsp/\libhal_bsp.a(alt_irq_handler.o)
                              ../Lab2_LOOP_AUDIO_bsp/\libhal_bsp.a(alt_irq_register.o) (alt_irq)
../Lab2_LOOP_AUDIO_bsp/\libhal_bsp.a(alt_exception_entry.o)
                              ../Lab2_LOOP_AUDIO_bsp/\libhal_bsp.a(alt_irq_entry.o) (alt_exception)
../Lab2_LOOP_AUDIO_bsp/\libhal_bsp.a(alt_instruction_exception_entry.o)
                              ../Lab2_LOOP_AUDIO_bsp/\libhal_bsp.a(alt_exception_entry.o) (alt_instruction_exception_entry)
c:/software/altera/18.1/nios2eds/bin/gnu/h-x86_64-mingw32/bin/../lib/gcc/nios2-elf/5.3.0/../../../../../H-x86_64-mingw32/nios2-elf/lib\libc.a(lib_a-atexit.o)
                              ../Lab2_LOOP_AUDIO_bsp/\libhal_bsp.a(alt_main.o) (atexit)
c:/software/altera/18.1/nios2eds/bin/gnu/h-x86_64-mingw32/bin/../lib/gcc/nios2-elf/5.3.0/../../../../../H-x86_64-mingw32/nios2-elf/lib\libc.a(lib_a-ctype_.o)
                              ../Lab2_LOOP_AUDIO_bsp/\libhal_bsp.a(altera_avalon_lcd_16207.o) (__ctype_ptr__)
c:/software/altera/18.1/nios2eds/bin/gnu/h-x86_64-mingw32/bin/../lib/gcc/nios2-elf/5.3.0/../../../../../H-x86_64-mingw32/nios2-elf/lib\libc.a(lib_a-exit.o)
                              ../Lab2_LOOP_AUDIO_bsp/\libhal_bsp.a(alt_main.o) (exit)
c:/software/altera/18.1/nios2eds/bin/gnu/h-x86_64-mingw32/bin/../lib/gcc/nios2-elf/5.3.0/../../../../../H-x86_64-mingw32/nios2-elf/lib\libc.a(lib_a-memcmp.o)
                              ../Lab2_LOOP_AUDIO_bsp/\libhal_bsp.a(alt_find_dev.o) (memcmp)
c:/software/altera/18.1/nios2eds/bin/gnu/h-x86_64-mingw32/bin/../lib/gcc/nios2-elf/5.3.0/../../../../../H-x86_64-mingw32/nios2-elf/lib\libc.a(lib_a-memcpy.o)
                              ../Lab2_LOOP_AUDIO_bsp/\libhal_bsp.a(altera_avalon_lcd_16207.o) (memcpy)
c:/software/altera/18.1/nios2eds/bin/gnu/h-x86_64-mingw32/bin/../lib/gcc/nios2-elf/5.3.0/../../../../../H-x86_64-mingw32/nios2-elf/lib\libc.a(lib_a-strlen.o)
                              ../Lab2_LOOP_AUDIO_bsp/\libhal_bsp.a(alt_find_dev.o) (strlen)
c:/software/altera/18.1/nios2eds/bin/gnu/h-x86_64-mingw32/bin/../lib/gcc/nios2-elf/5.3.0/../../../../../H-x86_64-mingw32/nios2-elf/lib\libc.a(lib_a-__atexit.o)
                              c:/software/altera/18.1/nios2eds/bin/gnu/h-x86_64-mingw32/bin/../lib/gcc/nios2-elf/5.3.0/../../../../../H-x86_64-mingw32/nios2-elf/lib\libc.a(lib_a-atexit.o) (__register_exitproc)
c:/software/altera/18.1/nios2eds/bin/gnu/h-x86_64-mingw32/bin/../lib/gcc/nios2-elf/5.3.0/../../../../../H-x86_64-mingw32/nios2-elf/lib\libc.a(lib_a-__call_atexit.o)
                              c:/software/altera/18.1/nios2eds/bin/gnu/h-x86_64-mingw32/bin/../lib/gcc/nios2-elf/5.3.0/../../../../../H-x86_64-mingw32/nios2-elf/lib\libc.a(lib_a-exit.o) (__call_exitprocs)
../Lab2_LOOP_AUDIO_bsp/\libhal_bsp.a(alt_exit.o)
                              c:/software/altera/18.1/nios2eds/bin/gnu/h-x86_64-mingw32/bin/../lib/gcc/nios2-elf/5.3.0/../../../../../H-x86_64-mingw32/nios2-elf/lib\libc.a(lib_a-exit.o) (_exit)

Allocating common symbols
Common symbol       size              file

alt_irq             0x100             ../Lab2_LOOP_AUDIO_bsp/\libhal_bsp.a(alt_irq_handler.o)
errno               0x4               c:/software/altera/18.1/nios2eds/bin/gnu/h-x86_64-mingw32/bin/../lib/gcc/nios2-elf/5.3.0/../../../../../H-x86_64-mingw32/nios2-elf/lib\libc.a(lib_a-int_errno.o)

Memory Configuration

Name             Origin             Length             Attributes
reset            0x0000000000800000 0x0000000000000020
sdram_0          0x0000000000800020 0x00000000007fffe0
*default*        0x0000000000000000 0xffffffffffffffff

Linker script and memory map

LOAD ../Lab2_LOOP_AUDIO_bsp//obj/HAL/src/crt0.o
LOAD obj/default/fatfs.o
LOAD obj/default/fatfs_diskio.o
LOAD obj/default/fatfs_nios2_de0_nano_spi.o
LOAD obj/default/fatfs_nios2_de1_pio.o
LOAD obj/default/fatfs_nios2_de1_spi.o
LOAD obj/default/ff.o
LOAD obj/default/hello_world.o
LOAD obj/default/monitor.o
LOAD obj/default/uart_nios2.o
LOAD c:/software/altera/18.1/nios2eds/bin/gnu/h-x86_64-mingw32/bin/../lib/gcc/nios2-elf/5.3.0/../../../../../H-x86_64-mingw32/nios2-elf/lib\libstdc++.a
LOAD c:/software/altera/18.1/nios2eds/bin/gnu/h-x86_64-mingw32/bin/../lib/gcc/nios2-elf/5.3.0/../../../../../H-x86_64-mingw32/nios2-elf/lib\libm.a
LOAD c:/software/altera/18.1/nios2eds/bin/gnu/h-x86_64-mingw32/bin/../lib/gcc/nios2-elf/5.3.0\libgcc.a
START GROUP
LOAD c:/software/altera/18.1/nios2eds/bin/gnu/h-x86_64-mingw32/bin/../lib/gcc/nios2-elf/5.3.0/../../../../../H-x86_64-mingw32/nios2-elf/lib\libc.a
LOAD c:/software/altera/18.1/nios2eds/bin/gnu/h-x86_64-mingw32/bin/../lib/gcc/nios2-elf/5.3.0\libgcc.a
LOAD ../Lab2_LOOP_AUDIO_bsp/\libhal_bsp.a
LOAD c:/software/altera/18.1/nios2eds/bin/gnu/h-x86_64-mingw32/bin/../lib/gcc/nios2-elf/5.3.0/../../../../../H-x86_64-mingw32/nios2-elf/lib\libm.a
END GROUP
LOAD c:/software/altera/18.1/nios2eds/bin/gnu/h-x86_64-mingw32/bin/../lib/gcc/nios2-elf/5.3.0\libgcc.a
                0x0000000000800000                __alt_mem_sdram_0 = 0x800000

.entry          0x0000000000800000       0x20
 *(.entry)
 .entry         0x0000000000800000       0x20 ../Lab2_LOOP_AUDIO_bsp//obj/HAL/src/crt0.o
                0x0000000000800000                __reset

.exceptions     0x0000000000800020      0x228
                0x0000000000800020                PROVIDE (__ram_exceptions_start, ABSOLUTE (.))
                0x0000000000800020                . = ALIGN (0x20)
 *(.irq)
 *(.exceptions.entry.label)
 .exceptions.entry.label
                0x0000000000800020        0x0 ../Lab2_LOOP_AUDIO_bsp/\libhal_bsp.a(alt_irq_entry.o)
                0x0000000000800020                alt_irq_entry
 .exceptions.entry.label
                0x0000000000800020        0x0 ../Lab2_LOOP_AUDIO_bsp/\libhal_bsp.a(alt_exception_entry.o)
                0x0000000000800020                alt_exception
 *(.exceptions.entry.user)
 *(.exceptions.entry.ecc_fatal)
 *(.exceptions.entry)
 .exceptions.entry
                0x0000000000800020       0x54 ../Lab2_LOOP_AUDIO_bsp/\libhal_bsp.a(alt_exception_entry.o)
 *(.exceptions.irqtest.user)
 *(.exceptions.irqtest)
 .exceptions.irqtest
                0x0000000000800074       0x10 ../Lab2_LOOP_AUDIO_bsp/\libhal_bsp.a(alt_irq_entry.o)
 *(.exceptions.irqhandler.user)
 *(.exceptions.irqhandler)
 .exceptions.irqhandler
                0x0000000000800084        0x4 ../Lab2_LOOP_AUDIO_bsp/\libhal_bsp.a(alt_irq_entry.o)
 *(.exceptions.irqreturn.user)
 *(.exceptions.irqreturn)
 .exceptions.irqreturn
                0x0000000000800088        0x4 ../Lab2_LOOP_AUDIO_bsp/\libhal_bsp.a(alt_irq_entry.o)
 *(.exceptions.notirq.label)
 .exceptions.notirq.label
                0x000000000080008c        0x0 ../Lab2_LOOP_AUDIO_bsp/\libhal_bsp.a(alt_irq_entry.o)
 *(.exceptions.notirq.user)
 *(.exceptions.notirq)
 .exceptions.notirq
                0x000000000080008c        0x8 ../Lab2_LOOP_AUDIO_bsp/\libhal_bsp.a(alt_exception_entry.o)
 *(.exceptions.soft.user)
 *(.exceptions.soft)
 *(.exceptions.unknown.user)
 *(.exceptions.unknown)
 .exceptions.unknown
                0x0000000000800094       0x14 ../Lab2_LOOP_AUDIO_bsp/\libhal_bsp.a(alt_exception_entry.o)
 *(.exceptions.exit.label)
 .exceptions.exit.label
                0x00000000008000a8        0x0 ../Lab2_LOOP_AUDIO_bsp/\libhal_bsp.a(alt_irq_entry.o)
 .exceptions.exit.label
                0x00000000008000a8        0x0 ../Lab2_LOOP_AUDIO_bsp/\libhal_bsp.a(alt_exception_entry.o)
 *(.exceptions.exit.user)
 *(.exceptions.exit)
 .exceptions.exit
                0x00000000008000a8       0x54 ../Lab2_LOOP_AUDIO_bsp/\libhal_bsp.a(alt_exception_entry.o)
 *(.exceptions)
 .exceptions    0x00000000008000fc       0xd8 ../Lab2_LOOP_AUDIO_bsp/\libhal_bsp.a(alt_irq_handler.o)
                0x00000000008000fc                alt_irq_handler
 .exceptions    0x00000000008001d4       0x74 ../Lab2_LOOP_AUDIO_bsp/\libhal_bsp.a(alt_instruction_exception_entry.o)
                0x00000000008001d4                alt_instruction_exception_entry
                0x0000000000800248                PROVIDE (__ram_exceptions_end, ABSOLUTE (.))
                0x0000000000800020                PROVIDE (__flash_exceptions_start, LOADADDR (.exceptions))

.text           0x0000000000800248     0xf290
                [!provide]                        PROVIDE (stext, ABSOLUTE (.))
 *(.interp)
 *(.hash)
 *(.dynsym)
 *(.dynstr)
 *(.gnu.version)
 *(.gnu.version_d)
 *(.gnu.version_r)
 *(.rel.init)
 *(.rela.init)
 *(.rel.text .rel.text.* .rel.gnu.linkonce.t.*)
 *(.rela.text .rela.text.* .rela.gnu.linkonce.t.*)
 *(.rel.fini)
 *(.rela.fini)
 *(.rel.rodata .rel.rodata.* .rel.gnu.linkonce.r.*)
 *(.rela.rodata .rela.rodata.* .rela.gnu.linkonce.r.*)
 *(.rel.data .rel.data.* .rel.gnu.linkonce.d.*)
 *(.rela.data .rela.data.* .rela.gnu.linkonce.d.*)
 *(.rel.tdata .rel.tdata.* .rel.gnu.linkonce.td.*)
 *(.rela.tdata .rela.tdata.* .rela.gnu.linkonce.td.*)
 *(.rel.tbss .rel.tbss.* .rel.gnu.linkonce.tb.*)
 *(.rela.tbss .rela.tbss.* .rela.gnu.linkonce.tb.*)
 *(.rel.ctors)
 *(.rela.ctors)
 *(.rel.dtors)
 *(.rela.dtors)
 *(.rel.got)
 *(.rela.got)
 *(.rel.sdata .rel.sdata.* .rel.gnu.linkonce.s.*)
 *(.rela.sdata .rela.sdata.* .rela.gnu.linkonce.s.*)
 *(.rel.sbss .rel.sbss.* .rel.gnu.linkonce.sb.*)
 *(.rela.sbss .rela.sbss.* .rela.gnu.linkonce.sb.*)
 *(.rel.sdata2 .rel.sdata2.* .rel.gnu.linkonce.s2.*)
 *(.rela.sdata2 .rela.sdata2.* .rela.gnu.linkonce.s2.*)
 *(.rel.sbss2 .rel.sbss2.* .rel.gnu.linkonce.sb2.*)
 *(.rela.sbss2 .rela.sbss2.* .rela.gnu.linkonce.sb2.*)
 *(.rel.bss .rel.bss.* .rel.gnu.linkonce.b.*)
 *(.rela.bss .rela.bss.* .rela.gnu.linkonce.b.*)
 *(.rel.plt)
 *(.rela.plt)
 *(.rel.dyn)
 *(.init)
 *(.plt)
 *(.text .stub .text.* .gnu.linkonce.t.*)
 .text          0x0000000000800248       0x4c ../Lab2_LOOP_AUDIO_bsp//obj/HAL/src/crt0.o
                0x0000000000800248                _start
 .text          0x0000000000800294       0x24 obj/default/fatfs.o
                0x0000000000800294                ffs_Init
 .text          0x00000000008002b8     0x12d0 obj/default/fatfs_diskio.o
                0x0000000000800a4c                ffs_DiskIOInit
                0x0000000000800a78                ffs_DiskIOTimerproc
                0x0000000000800b84                ffs_DiskIOInitialize
                0x0000000000800de0                ffs_DiskIOStatus
                0x0000000000800e08                ffs_DiskIORead
                0x0000000000800f28                ffs_DiskIOWrite
                0x0000000000801098                ffs_DiskIOIoctl
                0x000000000080155c                get_fattime
 .text          0x0000000000801588        0x0 obj/default/fatfs_nios2_de0_nano_spi.o
 .text          0x0000000000801588        0x0 obj/default/fatfs_nios2_de1_pio.o
 .text          0x0000000000801588        0x0 obj/default/fatfs_nios2_de1_spi.o
 .text          0x0000000000801588     0x6b6c obj/default/ff.o
                0x0000000000801ad8                clust2sect
                0x0000000000801b44                get_fat
                0x0000000000801dd4                put_fat
                0x0000000000803f60                f_mount
                0x0000000000803ff4                f_open
                0x0000000000804478                f_read
                0x0000000000804960                f_write
                0x0000000000804ee4                f_sync
                0x000000000080516c                f_close
                0x00000000008051b4                f_lseek
                0x00000000008056a4                f_opendir
                0x0000000000805814                f_readdir
                0x00000000008058f8                f_stat
                0x0000000000805998                f_getfree
                0x0000000000805c84                f_truncate
                0x0000000000805e6c                f_unlink
                0x0000000000806084                f_mkdir
                0x00000000008064bc                f_chmod
                0x00000000008065c8                f_utime
                0x00000000008066dc                f_rename
                0x00000000008069f0                f_mkfs
                0x00000000008078b0                f_gets
                0x0000000000807988                f_putc
                0x00000000008079fc                f_puts
                0x0000000000807a94                f_printf
 .text          0x00000000008080f4       0xc0 obj/default/hello_world.o
                0x00000000008080f4                main
 .text          0x00000000008081b4      0x9a8 obj/default/monitor.o
                0x00000000008081b4                xatoi
                0x0000000000808438                xputc
                0x000000000080848c                xputs
                0x00000000008084f8                xitoa
                0x00000000008086b8                xprintf
                0x000000000080897c                put_dump
                0x0000000000808a9c                get_line
 .text          0x0000000000808b5c       0xb0 obj/default/uart_nios2.o
                0x0000000000808b5c                uart0_init
                0x0000000000808b80                uart0_put
                0x0000000000808bbc                uart0_get
 .text          0x0000000000808c0c      0x1b4 c:/software/altera/18.1/nios2eds/bin/gnu/h-x86_64-mingw32/bin/../lib/gcc/nios2-elf/5.3.0\libgcc.a(lib2-divmod.o)
                0x0000000000808c0c                __divsi3
                0x0000000000808c90                __modsi3
                0x0000000000808d04                __udivsi3
                0x0000000000808d68                __umodsi3
 .text          0x0000000000808dc0        0x0 c:/software/altera/18.1/nios2eds/bin/gnu/h-x86_64-mingw32/bin/../lib/gcc/nios2-elf/5.3.0/../../../../../H-x86_64-mingw32/nios2-elf/lib\libc.a(lib_a-getc.o)
 .text._getc_r  0x0000000000808dc0       0x70 c:/software/altera/18.1/nios2eds/bin/gnu/h-x86_64-mingw32/bin/../lib/gcc/nios2-elf/5.3.0/../../../../../H-x86_64-mingw32/nios2-elf/lib\libc.a(lib_a-getc.o)
                0x0000000000808dc0                _getc_r
 .text.getc     0x0000000000808e30       0x88 c:/software/altera/18.1/nios2eds/bin/gnu/h-x86_64-mingw32/bin/../lib/gcc/nios2-elf/5.3.0/../../../../../H-x86_64-mingw32/nios2-elf/lib\libc.a(lib_a-getc.o)
                0x0000000000808e30                getc
 .text          0x0000000000808eb8        0x0 c:/software/altera/18.1/nios2eds/bin/gnu/h-x86_64-mingw32/bin/../lib/gcc/nios2-elf/5.3.0/../../../../../H-x86_64-mingw32/nios2-elf/lib\libc.a(lib_a-impure.o)
 .text          0x0000000000808eb8        0x0 c:/software/altera/18.1/nios2eds/bin/gnu/h-x86_64-mingw32/bin/../lib/gcc/nios2-elf/5.3.0/../../../../../H-x86_64-mingw32/nios2-elf/lib\libc.a(lib_a-putchar.o)
 .text._putchar_r
                0x0000000000808eb8        0x8 c:/software/altera/18.1/nios2eds/bin/gnu/h-x86_64-mingw32/bin/../lib/gcc/nios2-elf/5.3.0/../../../../../H-x86_64-mingw32/nios2-elf/lib\libc.a(lib_a-putchar.o)
                0x0000000000808eb8                _putchar_r
 .text.putchar  0x0000000000808ec0       0x18 c:/software/altera/18.1/nios2eds/bin/gnu/h-x86_64-mingw32/bin/../lib/gcc/nios2-elf/5.3.0/../../../../../H-x86_64-mingw32/nios2-elf/lib\libc.a(lib_a-putchar.o)
                0x0000000000808ec0                putchar
 .text          0x0000000000808ed8        0x0 c:/software/altera/18.1/nios2eds/bin/gnu/h-x86_64-mingw32/bin/../lib/gcc/nios2-elf/5.3.0/../../../../../H-x86_64-mingw32/nios2-elf/lib\libc.a(lib_a-rget.o)
 .text.__srget_r
                0x0000000000808ed8       0x74 c:/software/altera/18.1/nios2eds/bin/gnu/h-x86_64-mingw32/bin/../lib/gcc/nios2-elf/5.3.0/../../../../../H-x86_64-mingw32/nios2-elf/lib\libc.a(lib_a-rget.o)
                0x0000000000808ed8                __srget_r
 .text.__srget  0x0000000000808f4c       0x14 c:/software/altera/18.1/nios2eds/bin/gnu/h-x86_64-mingw32/bin/../lib/gcc/nios2-elf/5.3.0/../../../../../H-x86_64-mingw32/nios2-elf/lib\libc.a(lib_a-rget.o)
                0x0000000000808f4c                __srget
 .text          0x0000000000808f60        0x0 c:/software/altera/18.1/nios2eds/bin/gnu/h-x86_64-mingw32/bin/../lib/gcc/nios2-elf/5.3.0/../../../../../H-x86_64-mingw32/nios2-elf/lib\libc.a(lib_a-findfp.o)
 .text.__fp_unlock
                0x0000000000808f60        0x8 c:/software/altera/18.1/nios2eds/bin/gnu/h-x86_64-mingw32/bin/../lib/gcc/nios2-elf/5.3.0/../../../../../H-x86_64-mingw32/nios2-elf/lib\libc.a(lib_a-findfp.o)
 .text._cleanup_r
                0x0000000000808f68        0xc c:/software/altera/18.1/nios2eds/bin/gnu/h-x86_64-mingw32/bin/../lib/gcc/nios2-elf/5.3.0/../../../../../H-x86_64-mingw32/nios2-elf/lib\libc.a(lib_a-findfp.o)
                0x0000000000808f68                _cleanup_r
 .text.__sinit.part.1
                0x0000000000808f74      0x19c c:/software/altera/18.1/nios2eds/bin/gnu/h-x86_64-mingw32/bin/../lib/gcc/nios2-elf/5.3.0/../../../../../H-x86_64-mingw32/nios2-elf/lib\libc.a(lib_a-findfp.o)
 .text.__fp_lock
                0x0000000000809110        0x8 c:/software/altera/18.1/nios2eds/bin/gnu/h-x86_64-mingw32/bin/../lib/gcc/nios2-elf/5.3.0/../../../../../H-x86_64-mingw32/nios2-elf/lib\libc.a(lib_a-findfp.o)
 .text.__sfmoreglue
                0x0000000000809118       0x68 c:/software/altera/18.1/nios2eds/bin/gnu/h-x86_64-mingw32/bin/../lib/gcc/nios2-elf/5.3.0/../../../../../H-x86_64-mingw32/nios2-elf/lib\libc.a(lib_a-findfp.o)
                0x0000000000809118                __sfmoreglue
 .text.__sfp    0x0000000000809180      0x118 c:/software/altera/18.1/nios2eds/bin/gnu/h-x86_64-mingw32/bin/../lib/gcc/nios2-elf/5.3.0/../../../../../H-x86_64-mingw32/nios2-elf/lib\libc.a(lib_a-findfp.o)
                0x0000000000809180                __sfp
 .text._cleanup
                0x0000000000809298       0x18 c:/software/altera/18.1/nios2eds/bin/gnu/h-x86_64-mingw32/bin/../lib/gcc/nios2-elf/5.3.0/../../../../../H-x86_64-mingw32/nios2-elf/lib\libc.a(lib_a-findfp.o)
                0x0000000000809298                _cleanup
 .text.__sinit  0x00000000008092b0       0x10 c:/software/altera/18.1/nios2eds/bin/gnu/h-x86_64-mingw32/bin/../lib/gcc/nios2-elf/5.3.0/../../../../../H-x86_64-mingw32/nios2-elf/lib\libc.a(lib_a-findfp.o)
                0x00000000008092b0                __sinit
 .text.__sfp_lock_acquire
                0x00000000008092c0        0x4 c:/software/altera/18.1/nios2eds/bin/gnu/h-x86_64-mingw32/bin/../lib/gcc/nios2-elf/5.3.0/../../../../../H-x86_64-mingw32/nios2-elf/lib\libc.a(lib_a-findfp.o)
                0x00000000008092c0                __sfp_lock_acquire
 .text.__sfp_lock_release
                0x00000000008092c4        0x4 c:/software/altera/18.1/nios2eds/bin/gnu/h-x86_64-mingw32/bin/../lib/gcc/nios2-elf/5.3.0/../../../../../H-x86_64-mingw32/nios2-elf/lib\libc.a(lib_a-findfp.o)
                0x00000000008092c4                __sfp_lock_release
 .text.__sinit_lock_acquire
                0x00000000008092c8        0x4 c:/software/altera/18.1/nios2eds/bin/gnu/h-x86_64-mingw32/bin/../lib/gcc/nios2-elf/5.3.0/../../../../../H-x86_64-mingw32/nios2-elf/lib\libc.a(lib_a-findfp.o)
                0x00000000008092c8                __sinit_lock_acquire
 .text.__sinit_lock_release
                0x00000000008092cc        0x4 c:/software/altera/18.1/nios2eds/bin/gnu/h-x86_64-mingw32/bin/../lib/gcc/nios2-elf/5.3.0/../../../../../H-x86_64-mingw32/nios2-elf/lib\libc.a(lib_a-findfp.o)
                0x00000000008092cc                __sinit_lock_release
 .text.__fp_lock_all
                0x00000000008092d0       0x18 c:/software/altera/18.1/nios2eds/bin/gnu/h-x86_64-mingw32/bin/../lib/gcc/nios2-elf/5.3.0/../../../../../H-x86_64-mingw32/nios2-elf/lib\libc.a(lib_a-findfp.o)
                0x00000000008092d0                __fp_lock_all
 .text.__fp_unlock_all
                0x00000000008092e8       0x18 c:/software/altera/18.1/nios2eds/bin/gnu/h-x86_64-mingw32/bin/../lib/gcc/nios2-elf/5.3.0/../../../../../H-x86_64-mingw32/nios2-elf/lib\libc.a(lib_a-findfp.o)
                0x00000000008092e8                __fp_unlock_all
 .text          0x0000000000809300        0x0 c:/software/altera/18.1/nios2eds/bin/gnu/h-x86_64-mingw32/bin/../lib/gcc/nios2-elf/5.3.0/../../../../../H-x86_64-mingw32/nios2-elf/lib\libc.a(lib_a-fwalk.o)
 .text._fwalk   0x0000000000809300       0xc4 c:/software/altera/18.1/nios2eds/bin/gnu/h-x86_64-mingw32/bin/../lib/gcc/nios2-elf/5.3.0/../../../../../H-x86_64-mingw32/nios2-elf/lib\libc.a(lib_a-fwalk.o)
                0x0000000000809300                _fwalk
 .text._fwalk_reent
                0x00000000008093c4       0xc4 c:/software/altera/18.1/nios2eds/bin/gnu/h-x86_64-mingw32/bin/../lib/gcc/nios2-elf/5.3.0/../../../../../H-x86_64-mingw32/nios2-elf/lib\libc.a(lib_a-fwalk.o)
                0x00000000008093c4                _fwalk_reent
 .text          0x0000000000809488        0x0 c:/software/altera/18.1/nios2eds/bin/gnu/h-x86_64-mingw32/bin/../lib/gcc/nios2-elf/5.3.0/../../../../../H-x86_64-mingw32/nios2-elf/lib\libc.a(lib_a-mallocr.o)
 .text._malloc_r
                0x0000000000809488      0x80c c:/software/altera/18.1/nios2eds/bin/gnu/h-x86_64-mingw32/bin/../lib/gcc/nios2-elf/5.3.0/../../../../../H-x86_64-mingw32/nios2-elf/lib\libc.a(lib_a-mallocr.o)
                0x0000000000809488                _malloc_r
 .text          0x0000000000809c94        0x0 c:/software/altera/18.1/nios2eds/bin/gnu/h-x86_64-mingw32/bin/../lib/gcc/nios2-elf/5.3.0/../../../../../H-x86_64-mingw32/nios2-elf/lib\libc.a(lib_a-memset.o)
 .text.memset   0x0000000000809c94      0x128 c:/software/altera/18.1/nios2eds/bin/gnu/h-x86_64-mingw32/bin/../lib/gcc/nios2-elf/5.3.0/../../../../../H-x86_64-mingw32/nios2-elf/lib\libc.a(lib_a-memset.o)
                0x0000000000809c94                memset
 .text          0x0000000000809dbc        0x0 c:/software/altera/18.1/nios2eds/bin/gnu/h-x86_64-mingw32/bin/../lib/gcc/nios2-elf/5.3.0/../../../../../H-x86_64-mingw32/nios2-elf/lib\libc.a(lib_a-putc.o)
 .text._putc_r  0x0000000000809dbc       0xa0 c:/software/altera/18.1/nios2eds/bin/gnu/h-x86_64-mingw32/bin/../lib/gcc/nios2-elf/5.3.0/../../../../../H-x86_64-mingw32/nios2-elf/lib\libc.a(lib_a-putc.o)
                0x0000000000809dbc                _putc_r
 .text.putc     0x0000000000809e5c       0xc8 c:/software/altera/18.1/nios2eds/bin/gnu/h-x86_64-mingw32/bin/../lib/gcc/nios2-elf/5.3.0/../../../../../H-x86_64-mingw32/nios2-elf/lib\libc.a(lib_a-putc.o)
                0x0000000000809e5c                putc
 .text          0x0000000000809f24        0x0 c:/software/altera/18.1/nios2eds/bin/gnu/h-x86_64-mingw32/bin/../lib/gcc/nios2-elf/5.3.0/../../../../../H-x86_64-mingw32/nios2-elf/lib\libc.a(lib_a-refill.o)
 .text.lflush   0x0000000000809f24       0x1c c:/software/altera/18.1/nios2eds/bin/gnu/h-x86_64-mingw32/bin/../lib/gcc/nios2-elf/5.3.0/../../../../../H-x86_64-mingw32/nios2-elf/lib\libc.a(lib_a-refill.o)
 .text.__srefill_r
                0x0000000000809f40      0x1d4 c:/software/altera/18.1/nios2eds/bin/gnu/h-x86_64-mingw32/bin/../lib/gcc/nios2-elf/5.3.0/../../../../../H-x86_64-mingw32/nios2-elf/lib\libc.a(lib_a-refill.o)
                0x0000000000809f40                __srefill_r
 .text          0x000000000080a114        0x0 c:/software/altera/18.1/nios2eds/bin/gnu/h-x86_64-mingw32/bin/../lib/gcc/nios2-elf/5.3.0/../../../../../H-x86_64-mingw32/nios2-elf/lib\libc.a(lib_a-sbrkr.o)
 .text._sbrk_r  0x000000000080a114       0x54 c:/software/altera/18.1/nios2eds/bin/gnu/h-x86_64-mingw32/bin/../lib/gcc/nios2-elf/5.3.0/../../../../../H-x86_64-mingw32/nios2-elf/lib\libc.a(lib_a-sbrkr.o)
                0x000000000080a114                _sbrk_r
 .text          0x000000000080a168        0x0 c:/software/altera/18.1/nios2eds/bin/gnu/h-x86_64-mingw32/bin/../lib/gcc/nios2-elf/5.3.0/../../../../../H-x86_64-mingw32/nios2-elf/lib\libc.a(lib_a-stdio.o)
 .text.__sread  0x000000000080a168       0x54 c:/software/altera/18.1/nios2eds/bin/gnu/h-x86_64-mingw32/bin/../lib/gcc/nios2-elf/5.3.0/../../../../../H-x86_64-mingw32/nios2-elf/lib\libc.a(lib_a-stdio.o)
                0x000000000080a168                __sread
 .text.__seofread
                0x000000000080a1bc        0x8 c:/software/altera/18.1/nios2eds/bin/gnu/h-x86_64-mingw32/bin/../lib/gcc/nios2-elf/5.3.0/../../../../../H-x86_64-mingw32/nios2-elf/lib\libc.a(lib_a-stdio.o)
                0x000000000080a1bc                __seofread
 .text.__swrite
                0x000000000080a1c4       0x7c c:/software/altera/18.1/nios2eds/bin/gnu/h-x86_64-mingw32/bin/../lib/gcc/nios2-elf/5.3.0/../../../../../H-x86_64-mingw32/nios2-elf/lib\libc.a(lib_a-stdio.o)
                0x000000000080a1c4                __swrite
 .text.__sseek  0x000000000080a240       0x5c c:/software/altera/18.1/nios2eds/bin/gnu/h-x86_64-mingw32/bin/../lib/gcc/nios2-elf/5.3.0/../../../../../H-x86_64-mingw32/nios2-elf/lib\libc.a(lib_a-stdio.o)
                0x000000000080a240                __sseek
 .text.__sclose
                0x000000000080a29c        0x8 c:/software/altera/18.1/nios2eds/bin/gnu/h-x86_64-mingw32/bin/../lib/gcc/nios2-elf/5.3.0/../../../../../H-x86_64-mingw32/nios2-elf/lib\libc.a(lib_a-stdio.o)
                0x000000000080a29c                __sclose
 .text          0x000000000080a2a4        0x0 c:/software/altera/18.1/nios2eds/bin/gnu/h-x86_64-mingw32/bin/../lib/gcc/nios2-elf/5.3.0/../../../../../H-x86_64-mingw32/nios2-elf/lib\libc.a(lib_a-wbuf.o)
 .text.__swbuf_r
                0x000000000080a2a4      0x140 c:/software/altera/18.1/nios2eds/bin/gnu/h-x86_64-mingw32/bin/../lib/gcc/nios2-elf/5.3.0/../../../../../H-x86_64-mingw32/nios2-elf/lib\libc.a(lib_a-wbuf.o)
                0x000000000080a2a4                __swbuf_r
 .text.__swbuf  0x000000000080a3e4       0x18 c:/software/altera/18.1/nios2eds/bin/gnu/h-x86_64-mingw32/bin/../lib/gcc/nios2-elf/5.3.0/../../../../../H-x86_64-mingw32/nios2-elf/lib\libc.a(lib_a-wbuf.o)
                0x000000000080a3e4                __swbuf
 .text          0x000000000080a3fc        0x0 c:/software/altera/18.1/nios2eds/bin/gnu/h-x86_64-mingw32/bin/../lib/gcc/nios2-elf/5.3.0/../../../../../H-x86_64-mingw32/nios2-elf/lib\libc.a(lib_a-writer.o)
 .text._write_r
                0x000000000080a3fc       0x60 c:/software/altera/18.1/nios2eds/bin/gnu/h-x86_64-mingw32/bin/../lib/gcc/nios2-elf/5.3.0/../../../../../H-x86_64-mingw32/nios2-elf/lib\libc.a(lib_a-writer.o)
                0x000000000080a3fc                _write_r
 .text          0x000000000080a45c        0x0 c:/software/altera/18.1/nios2eds/bin/gnu/h-x86_64-mingw32/bin/../lib/gcc/nios2-elf/5.3.0/../../../../../H-x86_64-mingw32/nios2-elf/lib\libc.a(lib_a-wsetup.o)
 .text.__swsetup_r
                0x000000000080a45c      0x154 c:/software/altera/18.1/nios2eds/bin/gnu/h-x86_64-mingw32/bin/../lib/gcc/nios2-elf/5.3.0/../../../../../H-x86_64-mingw32/nios2-elf/lib\libc.a(lib_a-wsetup.o)
                0x000000000080a45c                __swsetup_r
 .text          0x000000000080a5b0        0x0 c:/software/altera/18.1/nios2eds/bin/gnu/h-x86_64-mingw32/bin/../lib/gcc/nios2-elf/5.3.0/../../../../../H-x86_64-mingw32/nios2-elf/lib\libc.a(closer.o)
 .text._close_r
                0x000000000080a5b0       0x54 c:/software/altera/18.1/nios2eds/bin/gnu/h-x86_64-mingw32/bin/../lib/gcc/nios2-elf/5.3.0/../../../../../H-x86_64-mingw32/nios2-elf/lib\libc.a(closer.o)
                0x000000000080a5b0                _close_r
 .text          0x000000000080a604        0x0 c:/software/altera/18.1/nios2eds/bin/gnu/h-x86_64-mingw32/bin/../lib/gcc/nios2-elf/5.3.0/../../../../../H-x86_64-mingw32/nios2-elf/lib\libc.a(lib_a-fclose.o)
 .text._fclose_r
                0x000000000080a604       0xf0 c:/software/altera/18.1/nios2eds/bin/gnu/h-x86_64-mingw32/bin/../lib/gcc/nios2-elf/5.3.0/../../../../../H-x86_64-mingw32/nios2-elf/lib\libc.a(lib_a-fclose.o)
                0x000000000080a604                _fclose_r
 .text.fclose   0x000000000080a6f4       0x14 c:/software/altera/18.1/nios2eds/bin/gnu/h-x86_64-mingw32/bin/../lib/gcc/nios2-elf/5.3.0/../../../../../H-x86_64-mingw32/nios2-elf/lib\libc.a(lib_a-fclose.o)
                0x000000000080a6f4                fclose
 .text          0x000000000080a708        0x0 c:/software/altera/18.1/nios2eds/bin/gnu/h-x86_64-mingw32/bin/../lib/gcc/nios2-elf/5.3.0/../../../../../H-x86_64-mingw32/nios2-elf/lib\libc.a(lib_a-fflush.o)
 .text.__sflush_r
                0x000000000080a708      0x21c c:/software/altera/18.1/nios2eds/bin/gnu/h-x86_64-mingw32/bin/../lib/gcc/nios2-elf/5.3.0/../../../../../H-x86_64-mingw32/nios2-elf/lib\libc.a(lib_a-fflush.o)
                0x000000000080a708                __sflush_r
 .text._fflush_r
                0x000000000080a924       0x5c c:/software/altera/18.1/nios2eds/bin/gnu/h-x86_64-mingw32/bin/../lib/gcc/nios2-elf/5.3.0/../../../../../H-x86_64-mingw32/nios2-elf/lib\libc.a(lib_a-fflush.o)
                0x000000000080a924                _fflush_r
 .text.fflush   0x000000000080a980       0x30 c:/software/altera/18.1/nios2eds/bin/gnu/h-x86_64-mingw32/bin/../lib/gcc/nios2-elf/5.3.0/../../../../../H-x86_64-mingw32/nios2-elf/lib\libc.a(lib_a-fflush.o)
                0x000000000080a980                fflush
 .text          0x000000000080a9b0        0x0 c:/software/altera/18.1/nios2eds/bin/gnu/h-x86_64-mingw32/bin/../lib/gcc/nios2-elf/5.3.0/../../../../../H-x86_64-mingw32/nios2-elf/lib\libc.a(lib_a-freer.o)
 .text._malloc_trim_r
                0x000000000080a9b0      0x124 c:/software/altera/18.1/nios2eds/bin/gnu/h-x86_64-mingw32/bin/../lib/gcc/nios2-elf/5.3.0/../../../../../H-x86_64-mingw32/nios2-elf/lib\libc.a(lib_a-freer.o)
                0x000000000080a9b0                _malloc_trim_r
 .text._free_r  0x000000000080aad4      0x310 c:/software/altera/18.1/nios2eds/bin/gnu/h-x86_64-mingw32/bin/../lib/gcc/nios2-elf/5.3.0/../../../../../H-x86_64-mingw32/nios2-elf/lib\libc.a(lib_a-freer.o)
                0x000000000080aad4                _free_r
 .text          0x000000000080ade4        0x0 c:/software/altera/18.1/nios2eds/bin/gnu/h-x86_64-mingw32/bin/../lib/gcc/nios2-elf/5.3.0/../../../../../H-x86_64-mingw32/nios2-elf/lib\libc.a(lib_a-int_errno.o)
 .text          0x000000000080ade4        0x0 c:/software/altera/18.1/nios2eds/bin/gnu/h-x86_64-mingw32/bin/../lib/gcc/nios2-elf/5.3.0/../../../../../H-x86_64-mingw32/nios2-elf/lib\libc.a(lib_a-lseekr.o)
 .text._lseek_r
                0x000000000080ade4       0x60 c:/software/altera/18.1/nios2eds/bin/gnu/h-x86_64-mingw32/bin/../lib/gcc/nios2-elf/5.3.0/../../../../../H-x86_64-mingw32/nios2-elf/lib\libc.a(lib_a-lseekr.o)
                0x000000000080ade4                _lseek_r
 .text          0x000000000080ae44        0x0 c:/software/altera/18.1/nios2eds/bin/gnu/h-x86_64-mingw32/bin/../lib/gcc/nios2-elf/5.3.0/../../../../../H-x86_64-mingw32/nios2-elf/lib\libc.a(lib_a-makebuf.o)
 .text.__smakebuf_r
                0x000000000080ae44      0x1bc c:/software/altera/18.1/nios2eds/bin/gnu/h-x86_64-mingw32/bin/../lib/gcc/nios2-elf/5.3.0/../../../../../H-x86_64-mingw32/nios2-elf/lib\libc.a(lib_a-makebuf.o)
                0x000000000080ae44                __smakebuf_r
 .text          0x000000000080b000        0x0 c:/software/altera/18.1/nios2eds/bin/gnu/h-x86_64-mingw32/bin/../lib/gcc/nios2-elf/5.3.0/../../../../../H-x86_64-mingw32/nios2-elf/lib\libc.a(lib_a-readr.o)
 .text._read_r  0x000000000080b000       0x60 c:/software/altera/18.1/nios2eds/bin/gnu/h-x86_64-mingw32/bin/../lib/gcc/nios2-elf/5.3.0/../../../../../H-x86_64-mingw32/nios2-elf/lib\libc.a(lib_a-readr.o)
                0x000000000080b000                _read_r
 .text          0x000000000080b060        0x0 c:/software/altera/18.1/nios2eds/bin/gnu/h-x86_64-mingw32/bin/../lib/gcc/nios2-elf/5.3.0/../../../../../H-x86_64-mingw32/nios2-elf/lib\libc.a(lib_a-fstatr.o)
 .text._fstat_r
                0x000000000080b060       0x5c c:/software/altera/18.1/nios2eds/bin/gnu/h-x86_64-mingw32/bin/../lib/gcc/nios2-elf/5.3.0/../../../../../H-x86_64-mingw32/nios2-elf/lib\libc.a(lib_a-fstatr.o)
                0x000000000080b060                _fstat_r
 .text          0x000000000080b0bc        0x0 c:/software/altera/18.1/nios2eds/bin/gnu/h-x86_64-mingw32/bin/../lib/gcc/nios2-elf/5.3.0/../../../../../H-x86_64-mingw32/nios2-elf/lib\libc.a(lib_a-isattyr.o)
 .text._isatty_r
                0x000000000080b0bc       0x54 c:/software/altera/18.1/nios2eds/bin/gnu/h-x86_64-mingw32/bin/../lib/gcc/nios2-elf/5.3.0/../../../../../H-x86_64-mingw32/nios2-elf/lib\libc.a(lib_a-isattyr.o)
                0x000000000080b0bc                _isatty_r
 .text          0x000000000080b110      0x10c ../Lab2_LOOP_AUDIO_bsp/\libhal_bsp.a(alt_close.o)
                0x000000000080b14c                close
 .text          0x000000000080b21c       0x2c ../Lab2_LOOP_AUDIO_bsp/\libhal_bsp.a(alt_dev.o)
 .text          0x000000000080b248        0x0 ../Lab2_LOOP_AUDIO_bsp/\libhal_bsp.a(alt_errno.o)
 .text          0x000000000080b248       0xec ../Lab2_LOOP_AUDIO_bsp/\libhal_bsp.a(alt_fstat.o)
                0x000000000080b284                fstat
 .text          0x000000000080b334       0xe0 ../Lab2_LOOP_AUDIO_bsp/\libhal_bsp.a(alt_isatty.o)
                0x000000000080b370                isatty
 .text          0x000000000080b414       0xec ../Lab2_LOOP_AUDIO_bsp/\libhal_bsp.a(alt_load.o)
                0x000000000080b47c                alt_load
 .text          0x000000000080b500      0x110 ../Lab2_LOOP_AUDIO_bsp/\libhal_bsp.a(alt_lseek.o)
                0x000000000080b53c                lseek
 .text          0x000000000080b610       0x7c ../Lab2_LOOP_AUDIO_bsp/\libhal_bsp.a(alt_main.o)
                0x000000000080b610                alt_main
 .text          0x000000000080b68c       0x48 ../Lab2_LOOP_AUDIO_bsp/\libhal_bsp.a(alt_malloc_lock.o)
                0x000000000080b68c                __malloc_lock
                0x000000000080b6b0                __malloc_unlock
 .text          0x000000000080b6d4      0x22c ../Lab2_LOOP_AUDIO_bsp/\libhal_bsp.a(alt_printf.o)
                0x000000000080b6d4                alt_printf
 .text          0x000000000080b900       0x3c ../Lab2_LOOP_AUDIO_bsp/\libhal_bsp.a(alt_putchar.o)
                0x000000000080b900                alt_putchar
 .text          0x000000000080b93c      0x138 ../Lab2_LOOP_AUDIO_bsp/\libhal_bsp.a(alt_read.o)
                0x000000000080b978                read
 .text          0x000000000080ba74       0x64 ../Lab2_LOOP_AUDIO_bsp/\libhal_bsp.a(alt_release_fd.o)
                0x000000000080ba74                alt_release_fd
 .text          0x000000000080bad8       0xb0 ../Lab2_LOOP_AUDIO_bsp/\libhal_bsp.a(alt_sbrk.o)
                0x000000000080bad8                sbrk
 .text          0x000000000080bb88      0x134 ../Lab2_LOOP_AUDIO_bsp/\libhal_bsp.a(alt_write.o)
                0x000000000080bbc4                write
 .text          0x000000000080bcbc      0x10c ../Lab2_LOOP_AUDIO_bsp/\libhal_bsp.a(alt_sys_init.o)
                0x000000000080bcf0                alt_irq_init
                0x000000000080bd28                alt_sys_init
 .text          0x000000000080bdc8       0xc0 ../Lab2_LOOP_AUDIO_bsp/\libhal_bsp.a(altera_avalon_jtag_uart_fd.o)
                0x000000000080bdc8                altera_avalon_jtag_uart_read_fd
                0x000000000080be28                altera_avalon_jtag_uart_write_fd
 .text          0x000000000080be88       0xec ../Lab2_LOOP_AUDIO_bsp/\libhal_bsp.a(altera_avalon_jtag_uart_read.o)
                0x000000000080be88                altera_avalon_jtag_uart_read
 .text          0x000000000080bf74       0x94 ../Lab2_LOOP_AUDIO_bsp/\libhal_bsp.a(altera_avalon_jtag_uart_write.o)
                0x000000000080bf74                altera_avalon_jtag_uart_write
 .text          0x000000000080c008      0xe7c ../Lab2_LOOP_AUDIO_bsp/\libhal_bsp.a(altera_avalon_lcd_16207.o)
                0x000000000080c7cc                altera_avalon_lcd_16207_write
                0x000000000080cd50                altera_avalon_lcd_16207_init
 .text          0x000000000080ce84       0x60 ../Lab2_LOOP_AUDIO_bsp/\libhal_bsp.a(altera_avalon_lcd_16207_fd.o)
                0x000000000080ce84                altera_avalon_lcd_16207_write_fd
 .text          0x000000000080cee4       0xf0 ../Lab2_LOOP_AUDIO_bsp/\libhal_bsp.a(altera_avalon_timer_sc.o)
                0x000000000080cf60                alt_avalon_timer_sc_init
 .text          0x000000000080cfd4      0x110 ../Lab2_LOOP_AUDIO_bsp/\libhal_bsp.a(altera_avalon_uart_fd.o)
                0x000000000080cfd4                altera_avalon_uart_read_fd
                0x000000000080d034                altera_avalon_uart_write_fd
                0x000000000080d094                altera_avalon_uart_close_fd
 .text          0x000000000080d0e4      0x3c4 ../Lab2_LOOP_AUDIO_bsp/\libhal_bsp.a(altera_avalon_uart_init.o)
                0x000000000080d0e4                altera_avalon_uart_init
                0x000000000080d454                altera_avalon_uart_close
 .text          0x000000000080d4a8      0x218 ../Lab2_LOOP_AUDIO_bsp/\libhal_bsp.a(altera_avalon_uart_read.o)
                0x000000000080d4e4                altera_avalon_uart_read
 .text          0x000000000080d6c0      0x1e8 ../Lab2_LOOP_AUDIO_bsp/\libhal_bsp.a(altera_avalon_uart_write.o)
                0x000000000080d6fc                altera_avalon_uart_write
 .text          0x000000000080d8a8      0x7a8 ../Lab2_LOOP_AUDIO_bsp/\libhal_bsp.a(altera_up_avalon_audio.o)
                0x000000000080d8a8                alt_up_audio_open_dev
                0x000000000080d8e4                alt_up_audio_enable_read_interrupt
                0x000000000080d938                alt_up_audio_disable_read_interrupt
                0x000000000080d990                alt_up_audio_enable_write_interrupt
                0x000000000080d9e4                alt_up_audio_disable_write_interrupt
                0x000000000080da3c                alt_up_audio_read_interrupt_pending
                0x000000000080da7c                alt_up_audio_write_interrupt_pending
                0x000000000080dabc                alt_up_audio_reset_audio_core
                0x000000000080db50                alt_up_audio_read_fifo_avail
                0x000000000080dbb0                alt_up_audio_record_r
                0x000000000080dc18                alt_up_audio_record_l
                0x000000000080dc80                alt_up_audio_write_fifo_space
                0x000000000080dce0                alt_up_audio_play_r
                0x000000000080dd48                alt_up_audio_play_l
                0x000000000080ddb0                alt_up_audio_read_fifo
                0x000000000080de90                alt_up_audio_write_fifo
                0x000000000080df98                alt_up_audio_read_fifo_head
                0x000000000080dfe8                alt_up_audio_write_fifo_head
 .text          0x000000000080e050      0x12c ../Lab2_LOOP_AUDIO_bsp/\libhal_bsp.a(alt_alarm_start.o)
                0x000000000080e050                alt_alarm_start
 .text          0x000000000080e17c       0x48 ../Lab2_LOOP_AUDIO_bsp/\libhal_bsp.a(alt_dcache_flush_all.o)
                0x000000000080e17c                alt_dcache_flush_all
 .text          0x000000000080e1c4       0xe0 ../Lab2_LOOP_AUDIO_bsp/\libhal_bsp.a(alt_dev_llist_insert.o)
                0x000000000080e200                alt_dev_llist_insert
 .text          0x000000000080e2a4       0x60 ../Lab2_LOOP_AUDIO_bsp/\libhal_bsp.a(alt_do_ctors.o)
                0x000000000080e2a4                _do_ctors
 .text          0x000000000080e304       0x60 ../Lab2_LOOP_AUDIO_bsp/\libhal_bsp.a(alt_do_dtors.o)
                0x000000000080e304                _do_dtors
 .text          0x000000000080e364       0x90 ../Lab2_LOOP_AUDIO_bsp/\libhal_bsp.a(alt_find_dev.o)
                0x000000000080e364                alt_find_dev
 .text          0x000000000080e3f4       0x34 ../Lab2_LOOP_AUDIO_bsp/\libhal_bsp.a(alt_icache_flush_all.o)
                0x000000000080e3f4                alt_icache_flush_all
 .text          0x000000000080e428      0x140 ../Lab2_LOOP_AUDIO_bsp/\libhal_bsp.a(alt_io_redirect.o)
                0x000000000080e4ec                alt_io_redirect
 .text          0x000000000080e568      0x180 ../Lab2_LOOP_AUDIO_bsp/\libhal_bsp.a(alt_irq_register.o)
                0x000000000080e568                alt_irq_register
 .text          0x000000000080e6e8        0x0 ../Lab2_LOOP_AUDIO_bsp/\libhal_bsp.a(alt_irq_vars.o)
 .text          0x000000000080e6e8      0x254 ../Lab2_LOOP_AUDIO_bsp/\libhal_bsp.a(alt_open.o)
                0x000000000080e7e8                open
 .text          0x000000000080e93c      0x1a4 ../Lab2_LOOP_AUDIO_bsp/\libhal_bsp.a(alt_tick.o)
                0x000000000080e93c                alt_alarm_stop
                0x000000000080e9d8                alt_tick
 .text          0x000000000080eae0       0x30 ../Lab2_LOOP_AUDIO_bsp/\libhal_bsp.a(alt_usleep.o)
                0x000000000080eae0                usleep
 .text          0x000000000080eb10       0x24 ../Lab2_LOOP_AUDIO_bsp/\libhal_bsp.a(altera_nios2_gen2_irq.o)
                0x000000000080eb10                altera_nios2_gen2_irq_init
 .text          0x000000000080eb34      0x158 ../Lab2_LOOP_AUDIO_bsp/\libhal_bsp.a(alt_busy_sleep.o)
                0x000000000080eb34                alt_busy_sleep
 .text          0x000000000080ec8c      0x108 ../Lab2_LOOP_AUDIO_bsp/\libhal_bsp.a(alt_find_file.o)
                0x000000000080ec8c                alt_find_file
 .text          0x000000000080ed94       0xa4 ../Lab2_LOOP_AUDIO_bsp/\libhal_bsp.a(alt_get_fd.o)
                0x000000000080ed94                alt_get_fd
 .text          0x000000000080ee38       0x90 ../Lab2_LOOP_AUDIO_bsp/\libhal_bsp.a(alt_icache_flush.o)
                0x000000000080ee38                alt_icache_flush
 .text          0x000000000080eec8        0x0 ../Lab2_LOOP_AUDIO_bsp/\libhal_bsp.a(alt_irq_entry.o)
 .text          0x000000000080eec8        0x0 ../Lab2_LOOP_AUDIO_bsp/\libhal_bsp.a(alt_irq_handler.o)
 .text          0x000000000080eec8        0x0 ../Lab2_LOOP_AUDIO_bsp/\libhal_bsp.a(alt_exception_entry.o)
 .text          0x000000000080eec8       0x9c ../Lab2_LOOP_AUDIO_bsp/\libhal_bsp.a(alt_instruction_exception_entry.o)
                0x000000000080eec8                alt_exception_cause_generated_bad_addr
 .text          0x000000000080ef64        0x0 c:/software/altera/18.1/nios2eds/bin/gnu/h-x86_64-mingw32/bin/../lib/gcc/nios2-elf/5.3.0/../../../../../H-x86_64-mingw32/nios2-elf/lib\libc.a(lib_a-atexit.o)
 .text.atexit   0x000000000080ef64       0x14 c:/software/altera/18.1/nios2eds/bin/gnu/h-x86_64-mingw32/bin/../lib/gcc/nios2-elf/5.3.0/../../../../../H-x86_64-mingw32/nios2-elf/lib\libc.a(lib_a-atexit.o)
                0x000000000080ef64                atexit
 .text          0x000000000080ef78        0x0 c:/software/altera/18.1/nios2eds/bin/gnu/h-x86_64-mingw32/bin/../lib/gcc/nios2-elf/5.3.0/../../../../../H-x86_64-mingw32/nios2-elf/lib\libc.a(lib_a-ctype_.o)
 .text          0x000000000080ef78        0x0 c:/software/altera/18.1/nios2eds/bin/gnu/h-x86_64-mingw32/bin/../lib/gcc/nios2-elf/5.3.0/../../../../../H-x86_64-mingw32/nios2-elf/lib\libc.a(lib_a-exit.o)
 .text.exit     0x000000000080ef78       0x38 c:/software/altera/18.1/nios2eds/bin/gnu/h-x86_64-mingw32/bin/../lib/gcc/nios2-elf/5.3.0/../../../../../H-x86_64-mingw32/nios2-elf/lib\libc.a(lib_a-exit.o)
                0x000000000080ef78                exit
 .text          0x000000000080efb0        0x0 c:/software/altera/18.1/nios2eds/bin/gnu/h-x86_64-mingw32/bin/../lib/gcc/nios2-elf/5.3.0/../../../../../H-x86_64-mingw32/nios2-elf/lib\libc.a(lib_a-memcmp.o)
 .text.memcmp   0x000000000080efb0       0x7c c:/software/altera/18.1/nios2eds/bin/gnu/h-x86_64-mingw32/bin/../lib/gcc/nios2-elf/5.3.0/../../../../../H-x86_64-mingw32/nios2-elf/lib\libc.a(lib_a-memcmp.o)
                0x000000000080efb0                memcmp
 .text          0x000000000080f02c        0x0 c:/software/altera/18.1/nios2eds/bin/gnu/h-x86_64-mingw32/bin/../lib/gcc/nios2-elf/5.3.0/../../../../../H-x86_64-mingw32/nios2-elf/lib\libc.a(lib_a-memcpy.o)
 .text.memcpy   0x000000000080f02c      0x148 c:/software/altera/18.1/nios2eds/bin/gnu/h-x86_64-mingw32/bin/../lib/gcc/nios2-elf/5.3.0/../../../../../H-x86_64-mingw32/nios2-elf/lib\libc.a(lib_a-memcpy.o)
                0x000000000080f02c                memcpy
 .text          0x000000000080f174        0x0 c:/software/altera/18.1/nios2eds/bin/gnu/h-x86_64-mingw32/bin/../lib/gcc/nios2-elf/5.3.0/../../../../../H-x86_64-mingw32/nios2-elf/lib\libc.a(lib_a-strlen.o)
 .text.strlen   0x000000000080f174       0x98 c:/software/altera/18.1/nios2eds/bin/gnu/h-x86_64-mingw32/bin/../lib/gcc/nios2-elf/5.3.0/../../../../../H-x86_64-mingw32/nios2-elf/lib\libc.a(lib_a-strlen.o)
                0x000000000080f174                strlen
 .text          0x000000000080f20c        0x0 c:/software/altera/18.1/nios2eds/bin/gnu/h-x86_64-mingw32/bin/../lib/gcc/nios2-elf/5.3.0/../../../../../H-x86_64-mingw32/nios2-elf/lib\libc.a(lib_a-__atexit.o)
 .text.__register_exitproc
                0x000000000080f20c      0x118 c:/software/altera/18.1/nios2eds/bin/gnu/h-x86_64-mingw32/bin/../lib/gcc/nios2-elf/5.3.0/../../../../../H-x86_64-mingw32/nios2-elf/lib\libc.a(lib_a-__atexit.o)
                0x000000000080f20c                __register_exitproc
 .text          0x000000000080f324        0x0 c:/software/altera/18.1/nios2eds/bin/gnu/h-x86_64-mingw32/bin/../lib/gcc/nios2-elf/5.3.0/../../../../../H-x86_64-mingw32/nios2-elf/lib\libc.a(lib_a-__call_atexit.o)
 .text.__call_exitprocs
                0x000000000080f324      0x180 c:/software/altera/18.1/nios2eds/bin/gnu/h-x86_64-mingw32/bin/../lib/gcc/nios2-elf/5.3.0/../../../../../H-x86_64-mingw32/nios2-elf/lib\libc.a(lib_a-__call_atexit.o)
                0x000000000080f324                __call_exitprocs
 .text          0x000000000080f4a4       0x34 ../Lab2_LOOP_AUDIO_bsp/\libhal_bsp.a(alt_exit.o)
                0x000000000080f4a4                _exit
 *(.gnu.warning.*)
 *(.fini)
                [!provide]                        PROVIDE (__etext, ABSOLUTE (.))
                [!provide]                        PROVIDE (_etext, ABSOLUTE (.))
                [!provide]                        PROVIDE (etext, ABSOLUTE (.))
 *(.eh_frame_hdr)
                0x000000000080f4d8                . = ALIGN (0x4)
                [!provide]                        PROVIDE (__preinit_array_start, ABSOLUTE (.))
 *(.preinit_array)
                [!provide]                        PROVIDE (__preinit_array_end, ABSOLUTE (.))
                [!provide]                        PROVIDE (__init_array_start, ABSOLUTE (.))
 *(.init_array)
                [!provide]                        PROVIDE (__init_array_end, ABSOLUTE (.))
                [!provide]                        PROVIDE (__fini_array_start, ABSOLUTE (.))
 *(.fini_array)
                [!provide]                        PROVIDE (__fini_array_end, ABSOLUTE (.))
 *(.eh_frame)
 *(.gcc_except_table .gcc_except_table.*)
 *(.dynamic)
                0x000000000080f4d8                PROVIDE (__CTOR_LIST__, ABSOLUTE (.))
 *(.ctors)
 *(SORT(.ctors.*))
                0x000000000080f4d8                PROVIDE (__CTOR_END__, ABSOLUTE (.))
                0x000000000080f4d8                PROVIDE (__DTOR_LIST__, ABSOLUTE (.))
 *(.dtors)
 *(SORT(.dtors.*))
                0x000000000080f4d8                PROVIDE (__DTOR_END__, ABSOLUTE (.))
 *(.jcr)
                0x000000000080f4d8                . = ALIGN (0x4)

.rodata         0x000000000080f4d8      0x448
                0x000000000080f4d8                PROVIDE (__ram_rodata_start, ABSOLUTE (.))
                0x000000000080f4d8                . = ALIGN (0x4)
 *(.rodata .rodata.* .gnu.linkonce.r.*)
 .rodata        0x000000000080f4d8       0xf0 obj/default/ff.o
 .rodata        0x000000000080f5c8       0x4a obj/default/hello_world.o
 *fill*         0x000000000080f612        0x2 
 .rodata        0x000000000080f614        0xe obj/default/monitor.o
 *fill*         0x000000000080f622        0x2 
 .rodata.str1.4
                0x000000000080f624        0x4 c:/software/altera/18.1/nios2eds/bin/gnu/h-x86_64-mingw32/bin/../lib/gcc/nios2-elf/5.3.0/../../../../../H-x86_64-mingw32/nios2-elf/lib\libc.a(lib_a-impure.o)
                                          0x2 (size before relaxing)
 .rodata        0x000000000080f628        0xa ../Lab2_LOOP_AUDIO_bsp/\libhal_bsp.a(alt_dev.o)
 *fill*         0x000000000080f632        0x2 
 .rodata        0x000000000080f634       0x11 ../Lab2_LOOP_AUDIO_bsp/\libhal_bsp.a(alt_main.o)
 *fill*         0x000000000080f645        0x3 
 .rodata        0x000000000080f648       0x57 ../Lab2_LOOP_AUDIO_bsp/\libhal_bsp.a(alt_sys_init.o)
 .rodata._ctype_
                0x000000000080f69f      0x101 c:/software/altera/18.1/nios2eds/bin/gnu/h-x86_64-mingw32/bin/../lib/gcc/nios2-elf/5.3.0/../../../../../H-x86_64-mingw32/nios2-elf/lib\libc.a(lib_a-ctype_.o)
                0x000000000080f69f                _ctype_
 .rodata._ctype_b
                0x000000000080f7a0      0x180 c:/software/altera/18.1/nios2eds/bin/gnu/h-x86_64-mingw32/bin/../lib/gcc/nios2-elf/5.3.0/../../../../../H-x86_64-mingw32/nios2-elf/lib\libc.a(lib_a-ctype_.o)
 *(.rodata1)
                0x000000000080f920                . = ALIGN (0x4)
                0x000000000080f920                PROVIDE (__ram_rodata_end, ABSOLUTE (.))
                0x000000000080f4d8                PROVIDE (__flash_rodata_start, LOADADDR (.rodata))

.rwdata         0x000000000080f920      0xc88 load address 0x00000000008105a8
                0x000000000080f920                PROVIDE (__ram_rwdata_start, ABSOLUTE (.))
                0x000000000080f920                . = ALIGN (0x4)
 *(.got.plt)
 *(.got)
 *(.data1)
 *(.data .data.* .gnu.linkonce.d.*)
 .data          0x000000000080f920        0x0 ../Lab2_LOOP_AUDIO_bsp//obj/HAL/src/crt0.o
 .data          0x000000000080f920        0x0 obj/default/fatfs.o
 .data          0x000000000080f920        0x0 obj/default/fatfs_diskio.o
 .data          0x000000000080f920        0x0 obj/default/fatfs_nios2_de0_nano_spi.o
 .data          0x000000000080f920        0x0 obj/default/fatfs_nios2_de1_pio.o
 .data          0x000000000080f920        0x0 obj/default/fatfs_nios2_de1_spi.o
 .data          0x000000000080f920        0x0 obj/default/ff.o
 .data          0x000000000080f920        0x0 obj/default/hello_world.o
 .data          0x000000000080f920        0x0 obj/default/monitor.o
 .data          0x000000000080f920        0x0 obj/default/uart_nios2.o
 .data          0x000000000080f920        0x0 c:/software/altera/18.1/nios2eds/bin/gnu/h-x86_64-mingw32/bin/../lib/gcc/nios2-elf/5.3.0\libgcc.a(lib2-divmod.o)
 .data          0x000000000080f920        0x0 c:/software/altera/18.1/nios2eds/bin/gnu/h-x86_64-mingw32/bin/../lib/gcc/nios2-elf/5.3.0/../../../../../H-x86_64-mingw32/nios2-elf/lib\libc.a(lib_a-getc.o)
 .data          0x000000000080f920        0x0 c:/software/altera/18.1/nios2eds/bin/gnu/h-x86_64-mingw32/bin/../lib/gcc/nios2-elf/5.3.0/../../../../../H-x86_64-mingw32/nios2-elf/lib\libc.a(lib_a-impure.o)
 .data.impure_data
                0x000000000080f920      0x424 c:/software/altera/18.1/nios2eds/bin/gnu/h-x86_64-mingw32/bin/../lib/gcc/nios2-elf/5.3.0/../../../../../H-x86_64-mingw32/nios2-elf/lib\libc.a(lib_a-impure.o)
 .data          0x000000000080fd44        0x0 c:/software/altera/18.1/nios2eds/bin/gnu/h-x86_64-mingw32/bin/../lib/gcc/nios2-elf/5.3.0/../../../../../H-x86_64-mingw32/nios2-elf/lib\libc.a(lib_a-putchar.o)
 .data          0x000000000080fd44        0x0 c:/software/altera/18.1/nios2eds/bin/gnu/h-x86_64-mingw32/bin/../lib/gcc/nios2-elf/5.3.0/../../../../../H-x86_64-mingw32/nios2-elf/lib\libc.a(lib_a-rget.o)
 .data          0x000000000080fd44        0x0 c:/software/altera/18.1/nios2eds/bin/gnu/h-x86_64-mingw32/bin/../lib/gcc/nios2-elf/5.3.0/../../../../../H-x86_64-mingw32/nios2-elf/lib\libc.a(lib_a-findfp.o)
 .data          0x000000000080fd44        0x0 c:/software/altera/18.1/nios2eds/bin/gnu/h-x86_64-mingw32/bin/../lib/gcc/nios2-elf/5.3.0/../../../../../H-x86_64-mingw32/nios2-elf/lib\libc.a(lib_a-fwalk.o)
 .data          0x000000000080fd44        0x0 c:/software/altera/18.1/nios2eds/bin/gnu/h-x86_64-mingw32/bin/../lib/gcc/nios2-elf/5.3.0/../../../../../H-x86_64-mingw32/nios2-elf/lib\libc.a(lib_a-mallocr.o)
 .data.__malloc_av_
                0x000000000080fd44      0x408 c:/software/altera/18.1/nios2eds/bin/gnu/h-x86_64-mingw32/bin/../lib/gcc/nios2-elf/5.3.0/../../../../../H-x86_64-mingw32/nios2-elf/lib\libc.a(lib_a-mallocr.o)
                0x000000000080fd44                __malloc_av_
 .data          0x000000000081014c        0x0 c:/software/altera/18.1/nios2eds/bin/gnu/h-x86_64-mingw32/bin/../lib/gcc/nios2-elf/5.3.0/../../../../../H-x86_64-mingw32/nios2-elf/lib\libc.a(lib_a-memset.o)
 .data          0x000000000081014c        0x0 c:/software/altera/18.1/nios2eds/bin/gnu/h-x86_64-mingw32/bin/../lib/gcc/nios2-elf/5.3.0/../../../../../H-x86_64-mingw32/nios2-elf/lib\libc.a(lib_a-putc.o)
 .data          0x000000000081014c        0x0 c:/software/altera/18.1/nios2eds/bin/gnu/h-x86_64-mingw32/bin/../lib/gcc/nios2-elf/5.3.0/../../../../../H-x86_64-mingw32/nios2-elf/lib\libc.a(lib_a-refill.o)
 .data          0x000000000081014c        0x0 c:/software/altera/18.1/nios2eds/bin/gnu/h-x86_64-mingw32/bin/../lib/gcc/nios2-elf/5.3.0/../../../../../H-x86_64-mingw32/nios2-elf/lib\libc.a(lib_a-sbrkr.o)
 .data          0x000000000081014c        0x0 c:/software/altera/18.1/nios2eds/bin/gnu/h-x86_64-mingw32/bin/../lib/gcc/nios2-elf/5.3.0/../../../../../H-x86_64-mingw32/nios2-elf/lib\libc.a(lib_a-stdio.o)
 .data          0x000000000081014c        0x0 c:/software/altera/18.1/nios2eds/bin/gnu/h-x86_64-mingw32/bin/../lib/gcc/nios2-elf/5.3.0/../../../../../H-x86_64-mingw32/nios2-elf/lib\libc.a(lib_a-wbuf.o)
 .data          0x000000000081014c        0x0 c:/software/altera/18.1/nios2eds/bin/gnu/h-x86_64-mingw32/bin/../lib/gcc/nios2-elf/5.3.0/../../../../../H-x86_64-mingw32/nios2-elf/lib\libc.a(lib_a-writer.o)
 .data          0x000000000081014c        0x0 c:/software/altera/18.1/nios2eds/bin/gnu/h-x86_64-mingw32/bin/../lib/gcc/nios2-elf/5.3.0/../../../../../H-x86_64-mingw32/nios2-elf/lib\libc.a(lib_a-wsetup.o)
 .data          0x000000000081014c        0x0 c:/software/altera/18.1/nios2eds/bin/gnu/h-x86_64-mingw32/bin/../lib/gcc/nios2-elf/5.3.0/../../../../../H-x86_64-mingw32/nios2-elf/lib\libc.a(closer.o)
 .data          0x000000000081014c        0x0 c:/software/altera/18.1/nios2eds/bin/gnu/h-x86_64-mingw32/bin/../lib/gcc/nios2-elf/5.3.0/../../../../../H-x86_64-mingw32/nios2-elf/lib\libc.a(lib_a-fclose.o)
 .data          0x000000000081014c        0x0 c:/software/altera/18.1/nios2eds/bin/gnu/h-x86_64-mingw32/bin/../lib/gcc/nios2-elf/5.3.0/../../../../../H-x86_64-mingw32/nios2-elf/lib\libc.a(lib_a-fflush.o)
 .data          0x000000000081014c        0x0 c:/software/altera/18.1/nios2eds/bin/gnu/h-x86_64-mingw32/bin/../lib/gcc/nios2-elf/5.3.0/../../../../../H-x86_64-mingw32/nios2-elf/lib\libc.a(lib_a-freer.o)
 .data          0x000000000081014c        0x0 c:/software/altera/18.1/nios2eds/bin/gnu/h-x86_64-mingw32/bin/../lib/gcc/nios2-elf/5.3.0/../../../../../H-x86_64-mingw32/nios2-elf/lib\libc.a(lib_a-int_errno.o)
 .data          0x000000000081014c        0x0 c:/software/altera/18.1/nios2eds/bin/gnu/h-x86_64-mingw32/bin/../lib/gcc/nios2-elf/5.3.0/../../../../../H-x86_64-mingw32/nios2-elf/lib\libc.a(lib_a-lseekr.o)
 .data          0x000000000081014c        0x0 c:/software/altera/18.1/nios2eds/bin/gnu/h-x86_64-mingw32/bin/../lib/gcc/nios2-elf/5.3.0/../../../../../H-x86_64-mingw32/nios2-elf/lib\libc.a(lib_a-makebuf.o)
 .data          0x000000000081014c        0x0 c:/software/altera/18.1/nios2eds/bin/gnu/h-x86_64-mingw32/bin/../lib/gcc/nios2-elf/5.3.0/../../../../../H-x86_64-mingw32/nios2-elf/lib\libc.a(lib_a-readr.o)
 .data          0x000000000081014c        0x0 c:/software/altera/18.1/nios2eds/bin/gnu/h-x86_64-mingw32/bin/../lib/gcc/nios2-elf/5.3.0/../../../../../H-x86_64-mingw32/nios2-elf/lib\libc.a(lib_a-fstatr.o)
 .data          0x000000000081014c        0x0 c:/software/altera/18.1/nios2eds/bin/gnu/h-x86_64-mingw32/bin/../lib/gcc/nios2-elf/5.3.0/../../../../../H-x86_64-mingw32/nios2-elf/lib\libc.a(lib_a-isattyr.o)
 .data          0x000000000081014c        0x0 ../Lab2_LOOP_AUDIO_bsp/\libhal_bsp.a(alt_close.o)
 .data          0x000000000081014c      0x1a8 ../Lab2_LOOP_AUDIO_bsp/\libhal_bsp.a(alt_dev.o)
                0x000000000081014c                alt_dev_null
                0x0000000000810174                alt_fd_list
 .data          0x00000000008102f4        0x0 ../Lab2_LOOP_AUDIO_bsp/\libhal_bsp.a(alt_errno.o)
 .data          0x00000000008102f4        0x0 ../Lab2_LOOP_AUDIO_bsp/\libhal_bsp.a(alt_fstat.o)
 .data          0x00000000008102f4        0x0 ../Lab2_LOOP_AUDIO_bsp/\libhal_bsp.a(alt_isatty.o)
 .data          0x00000000008102f4        0x0 ../Lab2_LOOP_AUDIO_bsp/\libhal_bsp.a(alt_load.o)
 .data          0x00000000008102f4        0x0 ../Lab2_LOOP_AUDIO_bsp/\libhal_bsp.a(alt_lseek.o)
 .data          0x00000000008102f4        0x0 ../Lab2_LOOP_AUDIO_bsp/\libhal_bsp.a(alt_main.o)
 .data          0x00000000008102f4        0x0 ../Lab2_LOOP_AUDIO_bsp/\libhal_bsp.a(alt_malloc_lock.o)
 .data          0x00000000008102f4        0x0 ../Lab2_LOOP_AUDIO_bsp/\libhal_bsp.a(alt_printf.o)
 .data          0x00000000008102f4        0x0 ../Lab2_LOOP_AUDIO_bsp/\libhal_bsp.a(alt_putchar.o)
 .data          0x00000000008102f4        0x0 ../Lab2_LOOP_AUDIO_bsp/\libhal_bsp.a(alt_read.o)
 .data          0x00000000008102f4        0x0 ../Lab2_LOOP_AUDIO_bsp/\libhal_bsp.a(alt_release_fd.o)
 .data          0x00000000008102f4        0x0 ../Lab2_LOOP_AUDIO_bsp/\libhal_bsp.a(alt_sbrk.o)
 .data          0x00000000008102f4        0x0 ../Lab2_LOOP_AUDIO_bsp/\libhal_bsp.a(alt_write.o)
 .data          0x00000000008102f4      0x270 ../Lab2_LOOP_AUDIO_bsp/\libhal_bsp.a(alt_sys_init.o)
 .data          0x0000000000810564        0x0 ../Lab2_LOOP_AUDIO_bsp/\libhal_bsp.a(altera_avalon_jtag_uart_fd.o)
 .data          0x0000000000810564        0x0 ../Lab2_LOOP_AUDIO_bsp/\libhal_bsp.a(altera_avalon_jtag_uart_read.o)
 .data          0x0000000000810564        0x0 ../Lab2_LOOP_AUDIO_bsp/\libhal_bsp.a(altera_avalon_jtag_uart_write.o)
 .data          0x0000000000810564        0x0 ../Lab2_LOOP_AUDIO_bsp/\libhal_bsp.a(altera_avalon_lcd_16207.o)
 .data          0x0000000000810564        0x0 ../Lab2_LOOP_AUDIO_bsp/\libhal_bsp.a(altera_avalon_lcd_16207_fd.o)
 .data          0x0000000000810564        0x0 ../Lab2_LOOP_AUDIO_bsp/\libhal_bsp.a(altera_avalon_timer_sc.o)
 .data          0x0000000000810564        0x0 ../Lab2_LOOP_AUDIO_bsp/\libhal_bsp.a(altera_avalon_uart_fd.o)
 .data          0x0000000000810564        0x0 ../Lab2_LOOP_AUDIO_bsp/\libhal_bsp.a(altera_avalon_uart_init.o)
 .data          0x0000000000810564        0x0 ../Lab2_LOOP_AUDIO_bsp/\libhal_bsp.a(altera_avalon_uart_read.o)
 .data          0x0000000000810564        0x0 ../Lab2_LOOP_AUDIO_bsp/\libhal_bsp.a(altera_avalon_uart_write.o)
 .data          0x0000000000810564        0x0 ../Lab2_LOOP_AUDIO_bsp/\libhal_bsp.a(altera_up_avalon_audio.o)
 .data          0x0000000000810564        0x0 ../Lab2_LOOP_AUDIO_bsp/\libhal_bsp.a(alt_alarm_start.o)
 .data          0x0000000000810564        0x0 ../Lab2_LOOP_AUDIO_bsp/\libhal_bsp.a(alt_dcache_flush_all.o)
 .data          0x0000000000810564        0x0 ../Lab2_LOOP_AUDIO_bsp/\libhal_bsp.a(alt_dev_llist_insert.o)
 .data          0x0000000000810564        0x0 ../Lab2_LOOP_AUDIO_bsp/\libhal_bsp.a(alt_do_ctors.o)
 .data          0x0000000000810564        0x0 ../Lab2_LOOP_AUDIO_bsp/\libhal_bsp.a(alt_do_dtors.o)
 .data          0x0000000000810564        0x0 ../Lab2_LOOP_AUDIO_bsp/\libhal_bsp.a(alt_find_dev.o)
 .data          0x0000000000810564        0x0 ../Lab2_LOOP_AUDIO_bsp/\libhal_bsp.a(alt_icache_flush_all.o)
 .data          0x0000000000810564        0x0 ../Lab2_LOOP_AUDIO_bsp/\libhal_bsp.a(alt_io_redirect.o)
 .data          0x0000000000810564        0x0 ../Lab2_LOOP_AUDIO_bsp/\libhal_bsp.a(alt_irq_register.o)
 .data          0x0000000000810564        0x0 ../Lab2_LOOP_AUDIO_bsp/\libhal_bsp.a(alt_irq_vars.o)
 .data          0x0000000000810564        0x0 ../Lab2_LOOP_AUDIO_bsp/\libhal_bsp.a(alt_open.o)
 .data          0x0000000000810564        0x0 ../Lab2_LOOP_AUDIO_bsp/\libhal_bsp.a(alt_tick.o)
 .data          0x0000000000810564        0x0 ../Lab2_LOOP_AUDIO_bsp/\libhal_bsp.a(alt_usleep.o)
 .data          0x0000000000810564        0x0 ../Lab2_LOOP_AUDIO_bsp/\libhal_bsp.a(altera_nios2_gen2_irq.o)
 .data          0x0000000000810564        0x0 ../Lab2_LOOP_AUDIO_bsp/\libhal_bsp.a(alt_busy_sleep.o)
 .data          0x0000000000810564        0x0 ../Lab2_LOOP_AUDIO_bsp/\libhal_bsp.a(alt_find_file.o)
 .data          0x0000000000810564        0x0 ../Lab2_LOOP_AUDIO_bsp/\libhal_bsp.a(alt_get_fd.o)
 .data          0x0000000000810564        0x0 ../Lab2_LOOP_AUDIO_bsp/\libhal_bsp.a(alt_icache_flush.o)
 .data          0x0000000000810564        0x0 ../Lab2_LOOP_AUDIO_bsp/\libhal_bsp.a(alt_irq_entry.o)
 .data          0x0000000000810564        0x0 ../Lab2_LOOP_AUDIO_bsp/\libhal_bsp.a(alt_irq_handler.o)
 .data          0x0000000000810564        0x0 ../Lab2_LOOP_AUDIO_bsp/\libhal_bsp.a(alt_exception_entry.o)
 .data          0x0000000000810564        0x0 ../Lab2_LOOP_AUDIO_bsp/\libhal_bsp.a(alt_instruction_exception_entry.o)
 .data          0x0000000000810564        0x0 c:/software/altera/18.1/nios2eds/bin/gnu/h-x86_64-mingw32/bin/../lib/gcc/nios2-elf/5.3.0/../../../../../H-x86_64-mingw32/nios2-elf/lib\libc.a(lib_a-atexit.o)
 .data          0x0000000000810564        0x0 c:/software/altera/18.1/nios2eds/bin/gnu/h-x86_64-mingw32/bin/../lib/gcc/nios2-elf/5.3.0/../../../../../H-x86_64-mingw32/nios2-elf/lib\libc.a(lib_a-ctype_.o)
 .data          0x0000000000810564        0x0 c:/software/altera/18.1/nios2eds/bin/gnu/h-x86_64-mingw32/bin/../lib/gcc/nios2-elf/5.3.0/../../../../../H-x86_64-mingw32/nios2-elf/lib\libc.a(lib_a-exit.o)
 .data          0x0000000000810564        0x0 c:/software/altera/18.1/nios2eds/bin/gnu/h-x86_64-mingw32/bin/../lib/gcc/nios2-elf/5.3.0/../../../../../H-x86_64-mingw32/nios2-elf/lib\libc.a(lib_a-memcmp.o)
 .data          0x0000000000810564        0x0 c:/software/altera/18.1/nios2eds/bin/gnu/h-x86_64-mingw32/bin/../lib/gcc/nios2-elf/5.3.0/../../../../../H-x86_64-mingw32/nios2-elf/lib\libc.a(lib_a-memcpy.o)
 .data          0x0000000000810564        0x0 c:/software/altera/18.1/nios2eds/bin/gnu/h-x86_64-mingw32/bin/../lib/gcc/nios2-elf/5.3.0/../../../../../H-x86_64-mingw32/nios2-elf/lib\libc.a(lib_a-strlen.o)
 .data          0x0000000000810564        0x0 c:/software/altera/18.1/nios2eds/bin/gnu/h-x86_64-mingw32/bin/../lib/gcc/nios2-elf/5.3.0/../../../../../H-x86_64-mingw32/nios2-elf/lib\libc.a(lib_a-__atexit.o)
 .data          0x0000000000810564        0x0 c:/software/altera/18.1/nios2eds/bin/gnu/h-x86_64-mingw32/bin/../lib/gcc/nios2-elf/5.3.0/../../../../../H-x86_64-mingw32/nios2-elf/lib\libc.a(lib_a-__call_atexit.o)
 .data          0x0000000000810564        0x0 ../Lab2_LOOP_AUDIO_bsp/\libhal_bsp.a(alt_exit.o)
                0x0000000000818564                _gp = ABSOLUTE ((. + 0x8000))
                [!provide]                        PROVIDE (gp, _gp)
 *(.rwdata .rwdata.*)
 *(.sdata .sdata.* .gnu.linkonce.s.*)
 .sdata         0x0000000000810564        0x1 obj/default/fatfs_diskio.o
 *fill*         0x0000000000810565        0x3 
 .sdata._global_impure_ptr
                0x0000000000810568        0x4 c:/software/altera/18.1/nios2eds/bin/gnu/h-x86_64-mingw32/bin/../lib/gcc/nios2-elf/5.3.0/../../../../../H-x86_64-mingw32/nios2-elf/lib\libc.a(lib_a-impure.o)
                0x0000000000810568                _global_impure_ptr
 .sdata._impure_ptr
                0x000000000081056c        0x4 c:/software/altera/18.1/nios2eds/bin/gnu/h-x86_64-mingw32/bin/../lib/gcc/nios2-elf/5.3.0/../../../../../H-x86_64-mingw32/nios2-elf/lib\libc.a(lib_a-impure.o)
                0x000000000081056c                _impure_ptr
 .sdata.__malloc_sbrk_base
                0x0000000000810570        0x4 c:/software/altera/18.1/nios2eds/bin/gnu/h-x86_64-mingw32/bin/../lib/gcc/nios2-elf/5.3.0/../../../../../H-x86_64-mingw32/nios2-elf/lib\libc.a(lib_a-mallocr.o)
                0x0000000000810570                __malloc_sbrk_base
 .sdata.__malloc_trim_threshold
                0x0000000000810574        0x4 c:/software/altera/18.1/nios2eds/bin/gnu/h-x86_64-mingw32/bin/../lib/gcc/nios2-elf/5.3.0/../../../../../H-x86_64-mingw32/nios2-elf/lib\libc.a(lib_a-mallocr.o)
                0x0000000000810574                __malloc_trim_threshold
 .sdata         0x0000000000810578       0x14 ../Lab2_LOOP_AUDIO_bsp/\libhal_bsp.a(alt_dev.o)
                0x0000000000810578                alt_fs_list
                0x0000000000810580                alt_dev_list
                0x0000000000810588                alt_max_fd
 .sdata         0x000000000081058c        0x4 ../Lab2_LOOP_AUDIO_bsp/\libhal_bsp.a(alt_errno.o)
                0x000000000081058c                alt_errno
 .sdata         0x0000000000810590        0x4 ../Lab2_LOOP_AUDIO_bsp/\libhal_bsp.a(alt_sbrk.o)
 .sdata         0x0000000000810594        0x4 ../Lab2_LOOP_AUDIO_bsp/\libhal_bsp.a(altera_avalon_lcd_16207.o)
 .sdata         0x0000000000810598        0x4 ../Lab2_LOOP_AUDIO_bsp/\libhal_bsp.a(alt_irq_vars.o)
                0x0000000000810598                alt_priority_mask
 .sdata         0x000000000081059c        0x8 ../Lab2_LOOP_AUDIO_bsp/\libhal_bsp.a(alt_tick.o)
                0x000000000081059c                alt_alarm_list
 .sdata.__ctype_ptr__
                0x00000000008105a4        0x4 c:/software/altera/18.1/nios2eds/bin/gnu/h-x86_64-mingw32/bin/../lib/gcc/nios2-elf/5.3.0/../../../../../H-x86_64-mingw32/nios2-elf/lib\libc.a(lib_a-ctype_.o)
                0x00000000008105a4                __ctype_ptr__
 *(.sdata2 .sdata2.* .gnu.linkonce.s2.*)
                0x00000000008105a8                . = ALIGN (0x4)
                0x00000000008105a8                _edata = ABSOLUTE (.)
                [!provide]                        PROVIDE (edata, ABSOLUTE (.))
                0x00000000008105a8                PROVIDE (__ram_rwdata_end, ABSOLUTE (.))
                0x00000000008105a8                PROVIDE (__flash_rwdata_start, LOADADDR (.rwdata))

.bss            0x0000000000811230      0x16c
                0x0000000000811230                __bss_start = ABSOLUTE (.)
                [!provide]                        PROVIDE (__sbss_start, ABSOLUTE (.))
                [!provide]                        PROVIDE (___sbss_start, ABSOLUTE (.))
 *(.dynsbss)
 *(.sbss .sbss.* .gnu.linkonce.sb.*)
 .sbss          0x0000000000811230       0x10 obj/default/fatfs_diskio.o
 .sbss          0x0000000000811240        0x6 obj/default/ff.o
 *fill*         0x0000000000811246        0x2 
 .sbss.__malloc_max_total_mem
                0x0000000000811248        0x4 c:/software/altera/18.1/nios2eds/bin/gnu/h-x86_64-mingw32/bin/../lib/gcc/nios2-elf/5.3.0/../../../../../H-x86_64-mingw32/nios2-elf/lib\libc.a(lib_a-mallocr.o)
                0x0000000000811248                __malloc_max_total_mem
 .sbss.__malloc_max_sbrked_mem
                0x000000000081124c        0x4 c:/software/altera/18.1/nios2eds/bin/gnu/h-x86_64-mingw32/bin/../lib/gcc/nios2-elf/5.3.0/../../../../../H-x86_64-mingw32/nios2-elf/lib\libc.a(lib_a-mallocr.o)
                0x000000000081124c                __malloc_max_sbrked_mem
 .sbss.__malloc_top_pad
                0x0000000000811250        0x4 c:/software/altera/18.1/nios2eds/bin/gnu/h-x86_64-mingw32/bin/../lib/gcc/nios2-elf/5.3.0/../../../../../H-x86_64-mingw32/nios2-elf/lib\libc.a(lib_a-mallocr.o)
                0x0000000000811250                __malloc_top_pad
 .sbss          0x0000000000811254        0x4 c:/software/altera/18.1/nios2eds/bin/gnu/h-x86_64-mingw32/bin/../lib/gcc/nios2-elf/5.3.0/../../../../../H-x86_64-mingw32/nios2-elf/lib\libc.a(lib_a-int_errno.o)
                0x0000000000811254                errno
 .sbss          0x0000000000811258        0xc ../Lab2_LOOP_AUDIO_bsp/\libhal_bsp.a(alt_main.o)
                0x0000000000811258                alt_argc
                0x000000000081125c                alt_argv
                0x0000000000811260                alt_envp
 .sbss          0x0000000000811264        0x4 ../Lab2_LOOP_AUDIO_bsp/\libhal_bsp.a(alt_irq_vars.o)
                0x0000000000811264                alt_irq_active
 .sbss          0x0000000000811268        0x8 ../Lab2_LOOP_AUDIO_bsp/\libhal_bsp.a(alt_tick.o)
                0x0000000000811268                _alt_tick_rate
                0x000000000081126c                _alt_nticks
 .sbss          0x0000000000811270        0x4 ../Lab2_LOOP_AUDIO_bsp/\libhal_bsp.a(alt_instruction_exception_entry.o)
                0x0000000000811270                alt_instruction_exception_handler
 *(.sbss2 .sbss2.* .gnu.linkonce.sb2.*)
 *(.scommon)
                [!provide]                        PROVIDE (__sbss_end, ABSOLUTE (.))
                [!provide]                        PROVIDE (___sbss_end, ABSOLUTE (.))
 *(.dynbss)
 *(.bss .bss.* .gnu.linkonce.b.*)
 .bss           0x0000000000811274        0x0 ../Lab2_LOOP_AUDIO_bsp//obj/HAL/src/crt0.o
 .bss           0x0000000000811274        0x0 obj/default/fatfs.o
 .bss           0x0000000000811274        0x0 obj/default/fatfs_diskio.o
 .bss           0x0000000000811274        0x0 obj/default/fatfs_nios2_de0_nano_spi.o
 .bss           0x0000000000811274        0x0 obj/default/fatfs_nios2_de1_pio.o
 .bss           0x0000000000811274        0x0 obj/default/fatfs_nios2_de1_spi.o
 .bss           0x0000000000811274        0x0 obj/default/ff.o
 .bss           0x0000000000811274        0x0 obj/default/hello_world.o
 .bss           0x0000000000811274        0x0 obj/default/monitor.o
 .bss           0x0000000000811274        0x0 obj/default/uart_nios2.o
 .bss           0x0000000000811274        0x0 c:/software/altera/18.1/nios2eds/bin/gnu/h-x86_64-mingw32/bin/../lib/gcc/nios2-elf/5.3.0\libgcc.a(lib2-divmod.o)
 .bss           0x0000000000811274        0x0 c:/software/altera/18.1/nios2eds/bin/gnu/h-x86_64-mingw32/bin/../lib/gcc/nios2-elf/5.3.0/../../../../../H-x86_64-mingw32/nios2-elf/lib\libc.a(lib_a-getc.o)
 .bss           0x0000000000811274        0x0 c:/software/altera/18.1/nios2eds/bin/gnu/h-x86_64-mingw32/bin/../lib/gcc/nios2-elf/5.3.0/../../../../../H-x86_64-mingw32/nios2-elf/lib\libc.a(lib_a-impure.o)
 .bss           0x0000000000811274        0x0 c:/software/altera/18.1/nios2eds/bin/gnu/h-x86_64-mingw32/bin/../lib/gcc/nios2-elf/5.3.0/../../../../../H-x86_64-mingw32/nios2-elf/lib\libc.a(lib_a-putchar.o)
 .bss           0x0000000000811274        0x0 c:/software/altera/18.1/nios2eds/bin/gnu/h-x86_64-mingw32/bin/../lib/gcc/nios2-elf/5.3.0/../../../../../H-x86_64-mingw32/nios2-elf/lib\libc.a(lib_a-rget.o)
 .bss           0x0000000000811274        0x0 c:/software/altera/18.1/nios2eds/bin/gnu/h-x86_64-mingw32/bin/../lib/gcc/nios2-elf/5.3.0/../../../../../H-x86_64-mingw32/nios2-elf/lib\libc.a(lib_a-findfp.o)
 .bss           0x0000000000811274        0x0 c:/software/altera/18.1/nios2eds/bin/gnu/h-x86_64-mingw32/bin/../lib/gcc/nios2-elf/5.3.0/../../../../../H-x86_64-mingw32/nios2-elf/lib\libc.a(lib_a-fwalk.o)
 .bss           0x0000000000811274        0x0 c:/software/altera/18.1/nios2eds/bin/gnu/h-x86_64-mingw32/bin/../lib/gcc/nios2-elf/5.3.0/../../../../../H-x86_64-mingw32/nios2-elf/lib\libc.a(lib_a-mallocr.o)
 .bss.__malloc_current_mallinfo
                0x0000000000811274       0x28 c:/software/altera/18.1/nios2eds/bin/gnu/h-x86_64-mingw32/bin/../lib/gcc/nios2-elf/5.3.0/../../../../../H-x86_64-mingw32/nios2-elf/lib\libc.a(lib_a-mallocr.o)
                0x0000000000811274                __malloc_current_mallinfo
 .bss           0x000000000081129c        0x0 c:/software/altera/18.1/nios2eds/bin/gnu/h-x86_64-mingw32/bin/../lib/gcc/nios2-elf/5.3.0/../../../../../H-x86_64-mingw32/nios2-elf/lib\libc.a(lib_a-memset.o)
 .bss           0x000000000081129c        0x0 c:/software/altera/18.1/nios2eds/bin/gnu/h-x86_64-mingw32/bin/../lib/gcc/nios2-elf/5.3.0/../../../../../H-x86_64-mingw32/nios2-elf/lib\libc.a(lib_a-putc.o)
 .bss           0x000000000081129c        0x0 c:/software/altera/18.1/nios2eds/bin/gnu/h-x86_64-mingw32/bin/../lib/gcc/nios2-elf/5.3.0/../../../../../H-x86_64-mingw32/nios2-elf/lib\libc.a(lib_a-refill.o)
 .bss           0x000000000081129c        0x0 c:/software/altera/18.1/nios2eds/bin/gnu/h-x86_64-mingw32/bin/../lib/gcc/nios2-elf/5.3.0/../../../../../H-x86_64-mingw32/nios2-elf/lib\libc.a(lib_a-sbrkr.o)
 .bss           0x000000000081129c        0x0 c:/software/altera/18.1/nios2eds/bin/gnu/h-x86_64-mingw32/bin/../lib/gcc/nios2-elf/5.3.0/../../../../../H-x86_64-mingw32/nios2-elf/lib\libc.a(lib_a-stdio.o)
 .bss           0x000000000081129c        0x0 c:/software/altera/18.1/nios2eds/bin/gnu/h-x86_64-mingw32/bin/../lib/gcc/nios2-elf/5.3.0/../../../../../H-x86_64-mingw32/nios2-elf/lib\libc.a(lib_a-wbuf.o)
 .bss           0x000000000081129c        0x0 c:/software/altera/18.1/nios2eds/bin/gnu/h-x86_64-mingw32/bin/../lib/gcc/nios2-elf/5.3.0/../../../../../H-x86_64-mingw32/nios2-elf/lib\libc.a(lib_a-writer.o)
 .bss           0x000000000081129c        0x0 c:/software/altera/18.1/nios2eds/bin/gnu/h-x86_64-mingw32/bin/../lib/gcc/nios2-elf/5.3.0/../../../../../H-x86_64-mingw32/nios2-elf/lib\libc.a(lib_a-wsetup.o)
 .bss           0x000000000081129c        0x0 c:/software/altera/18.1/nios2eds/bin/gnu/h-x86_64-mingw32/bin/../lib/gcc/nios2-elf/5.3.0/../../../../../H-x86_64-mingw32/nios2-elf/lib\libc.a(closer.o)
 .bss           0x000000000081129c        0x0 c:/software/altera/18.1/nios2eds/bin/gnu/h-x86_64-mingw32/bin/../lib/gcc/nios2-elf/5.3.0/../../../../../H-x86_64-mingw32/nios2-elf/lib\libc.a(lib_a-fclose.o)
 .bss           0x000000000081129c        0x0 c:/software/altera/18.1/nios2eds/bin/gnu/h-x86_64-mingw32/bin/../lib/gcc/nios2-elf/5.3.0/../../../../../H-x86_64-mingw32/nios2-elf/lib\libc.a(lib_a-fflush.o)
 .bss           0x000000000081129c        0x0 c:/software/altera/18.1/nios2eds/bin/gnu/h-x86_64-mingw32/bin/../lib/gcc/nios2-elf/5.3.0/../../../../../H-x86_64-mingw32/nios2-elf/lib\libc.a(lib_a-freer.o)
 .bss           0x000000000081129c        0x0 c:/software/altera/18.1/nios2eds/bin/gnu/h-x86_64-mingw32/bin/../lib/gcc/nios2-elf/5.3.0/../../../../../H-x86_64-mingw32/nios2-elf/lib\libc.a(lib_a-int_errno.o)
 .bss           0x000000000081129c        0x0 c:/software/altera/18.1/nios2eds/bin/gnu/h-x86_64-mingw32/bin/../lib/gcc/nios2-elf/5.3.0/../../../../../H-x86_64-mingw32/nios2-elf/lib\libc.a(lib_a-lseekr.o)
 .bss           0x000000000081129c        0x0 c:/software/altera/18.1/nios2eds/bin/gnu/h-x86_64-mingw32/bin/../lib/gcc/nios2-elf/5.3.0/../../../../../H-x86_64-mingw32/nios2-elf/lib\libc.a(lib_a-makebuf.o)
 .bss           0x000000000081129c        0x0 c:/software/altera/18.1/nios2eds/bin/gnu/h-x86_64-mingw32/bin/../lib/gcc/nios2-elf/5.3.0/../../../../../H-x86_64-mingw32/nios2-elf/lib\libc.a(lib_a-readr.o)
 .bss           0x000000000081129c        0x0 c:/software/altera/18.1/nios2eds/bin/gnu/h-x86_64-mingw32/bin/../lib/gcc/nios2-elf/5.3.0/../../../../../H-x86_64-mingw32/nios2-elf/lib\libc.a(lib_a-fstatr.o)
 .bss           0x000000000081129c        0x0 c:/software/altera/18.1/nios2eds/bin/gnu/h-x86_64-mingw32/bin/../lib/gcc/nios2-elf/5.3.0/../../../../../H-x86_64-mingw32/nios2-elf/lib\libc.a(lib_a-isattyr.o)
 .bss           0x000000000081129c        0x0 ../Lab2_LOOP_AUDIO_bsp/\libhal_bsp.a(alt_close.o)
 .bss           0x000000000081129c        0x0 ../Lab2_LOOP_AUDIO_bsp/\libhal_bsp.a(alt_dev.o)
 .bss           0x000000000081129c        0x0 ../Lab2_LOOP_AUDIO_bsp/\libhal_bsp.a(alt_errno.o)
 .bss           0x000000000081129c        0x0 ../Lab2_LOOP_AUDIO_bsp/\libhal_bsp.a(alt_fstat.o)
 .bss           0x000000000081129c        0x0 ../Lab2_LOOP_AUDIO_bsp/\libhal_bsp.a(alt_isatty.o)
 .bss           0x000000000081129c        0x0 ../Lab2_LOOP_AUDIO_bsp/\libhal_bsp.a(alt_load.o)
 .bss           0x000000000081129c        0x0 ../Lab2_LOOP_AUDIO_bsp/\libhal_bsp.a(alt_lseek.o)
 .bss           0x000000000081129c        0x0 ../Lab2_LOOP_AUDIO_bsp/\libhal_bsp.a(alt_main.o)
 .bss           0x000000000081129c        0x0 ../Lab2_LOOP_AUDIO_bsp/\libhal_bsp.a(alt_malloc_lock.o)
 .bss           0x000000000081129c        0x0 ../Lab2_LOOP_AUDIO_bsp/\libhal_bsp.a(alt_printf.o)
 .bss           0x000000000081129c        0x0 ../Lab2_LOOP_AUDIO_bsp/\libhal_bsp.a(alt_putchar.o)
 .bss           0x000000000081129c        0x0 ../Lab2_LOOP_AUDIO_bsp/\libhal_bsp.a(alt_read.o)
 .bss           0x000000000081129c        0x0 ../Lab2_LOOP_AUDIO_bsp/\libhal_bsp.a(alt_release_fd.o)
 .bss           0x000000000081129c        0x0 ../Lab2_LOOP_AUDIO_bsp/\libhal_bsp.a(alt_sbrk.o)
 .bss           0x000000000081129c        0x0 ../Lab2_LOOP_AUDIO_bsp/\libhal_bsp.a(alt_write.o)
 .bss           0x000000000081129c        0x0 ../Lab2_LOOP_AUDIO_bsp/\libhal_bsp.a(alt_sys_init.o)
 .bss           0x000000000081129c        0x0 ../Lab2_LOOP_AUDIO_bsp/\libhal_bsp.a(altera_avalon_jtag_uart_fd.o)
 .bss           0x000000000081129c        0x0 ../Lab2_LOOP_AUDIO_bsp/\libhal_bsp.a(altera_avalon_jtag_uart_read.o)
 .bss           0x000000000081129c        0x0 ../Lab2_LOOP_AUDIO_bsp/\libhal_bsp.a(altera_avalon_jtag_uart_write.o)
 .bss           0x000000000081129c        0x0 ../Lab2_LOOP_AUDIO_bsp/\libhal_bsp.a(altera_avalon_lcd_16207.o)
 .bss           0x000000000081129c        0x0 ../Lab2_LOOP_AUDIO_bsp/\libhal_bsp.a(altera_avalon_lcd_16207_fd.o)
 .bss           0x000000000081129c        0x0 ../Lab2_LOOP_AUDIO_bsp/\libhal_bsp.a(altera_avalon_timer_sc.o)
 .bss           0x000000000081129c        0x0 ../Lab2_LOOP_AUDIO_bsp/\libhal_bsp.a(altera_avalon_uart_fd.o)
 .bss           0x000000000081129c        0x0 ../Lab2_LOOP_AUDIO_bsp/\libhal_bsp.a(altera_avalon_uart_init.o)
 .bss           0x000000000081129c        0x0 ../Lab2_LOOP_AUDIO_bsp/\libhal_bsp.a(altera_avalon_uart_read.o)
 .bss           0x000000000081129c        0x0 ../Lab2_LOOP_AUDIO_bsp/\libhal_bsp.a(altera_avalon_uart_write.o)
 .bss           0x000000000081129c        0x0 ../Lab2_LOOP_AUDIO_bsp/\libhal_bsp.a(altera_up_avalon_audio.o)
 .bss           0x000000000081129c        0x0 ../Lab2_LOOP_AUDIO_bsp/\libhal_bsp.a(alt_alarm_start.o)
 .bss           0x000000000081129c        0x0 ../Lab2_LOOP_AUDIO_bsp/\libhal_bsp.a(alt_dcache_flush_all.o)
 .bss           0x000000000081129c        0x0 ../Lab2_LOOP_AUDIO_bsp/\libhal_bsp.a(alt_dev_llist_insert.o)
 .bss           0x000000000081129c        0x0 ../Lab2_LOOP_AUDIO_bsp/\libhal_bsp.a(alt_do_ctors.o)
 .bss           0x000000000081129c        0x0 ../Lab2_LOOP_AUDIO_bsp/\libhal_bsp.a(alt_do_dtors.o)
 .bss           0x000000000081129c        0x0 ../Lab2_LOOP_AUDIO_bsp/\libhal_bsp.a(alt_find_dev.o)
 .bss           0x000000000081129c        0x0 ../Lab2_LOOP_AUDIO_bsp/\libhal_bsp.a(alt_icache_flush_all.o)
 .bss           0x000000000081129c        0x0 ../Lab2_LOOP_AUDIO_bsp/\libhal_bsp.a(alt_io_redirect.o)
 .bss           0x000000000081129c        0x0 ../Lab2_LOOP_AUDIO_bsp/\libhal_bsp.a(alt_irq_register.o)
 .bss           0x000000000081129c        0x0 ../Lab2_LOOP_AUDIO_bsp/\libhal_bsp.a(alt_irq_vars.o)
 .bss           0x000000000081129c        0x0 ../Lab2_LOOP_AUDIO_bsp/\libhal_bsp.a(alt_open.o)
 .bss           0x000000000081129c        0x0 ../Lab2_LOOP_AUDIO_bsp/\libhal_bsp.a(alt_tick.o)
 .bss           0x000000000081129c        0x0 ../Lab2_LOOP_AUDIO_bsp/\libhal_bsp.a(alt_usleep.o)
 .bss           0x000000000081129c        0x0 ../Lab2_LOOP_AUDIO_bsp/\libhal_bsp.a(altera_nios2_gen2_irq.o)
 .bss           0x000000000081129c        0x0 ../Lab2_LOOP_AUDIO_bsp/\libhal_bsp.a(alt_busy_sleep.o)
 .bss           0x000000000081129c        0x0 ../Lab2_LOOP_AUDIO_bsp/\libhal_bsp.a(alt_find_file.o)
 .bss           0x000000000081129c        0x0 ../Lab2_LOOP_AUDIO_bsp/\libhal_bsp.a(alt_get_fd.o)
 .bss           0x000000000081129c        0x0 ../Lab2_LOOP_AUDIO_bsp/\libhal_bsp.a(alt_icache_flush.o)
 .bss           0x000000000081129c        0x0 ../Lab2_LOOP_AUDIO_bsp/\libhal_bsp.a(alt_irq_entry.o)
 .bss           0x000000000081129c        0x0 ../Lab2_LOOP_AUDIO_bsp/\libhal_bsp.a(alt_irq_handler.o)
 .bss           0x000000000081129c        0x0 ../Lab2_LOOP_AUDIO_bsp/\libhal_bsp.a(alt_exception_entry.o)
 .bss           0x000000000081129c        0x0 ../Lab2_LOOP_AUDIO_bsp/\libhal_bsp.a(alt_instruction_exception_entry.o)
 .bss           0x000000000081129c        0x0 c:/software/altera/18.1/nios2eds/bin/gnu/h-x86_64-mingw32/bin/../lib/gcc/nios2-elf/5.3.0/../../../../../H-x86_64-mingw32/nios2-elf/lib\libc.a(lib_a-atexit.o)
 .bss           0x000000000081129c        0x0 c:/software/altera/18.1/nios2eds/bin/gnu/h-x86_64-mingw32/bin/../lib/gcc/nios2-elf/5.3.0/../../../../../H-x86_64-mingw32/nios2-elf/lib\libc.a(lib_a-ctype_.o)
 .bss           0x000000000081129c        0x0 c:/software/altera/18.1/nios2eds/bin/gnu/h-x86_64-mingw32/bin/../lib/gcc/nios2-elf/5.3.0/../../../../../H-x86_64-mingw32/nios2-elf/lib\libc.a(lib_a-exit.o)
 .bss           0x000000000081129c        0x0 c:/software/altera/18.1/nios2eds/bin/gnu/h-x86_64-mingw32/bin/../lib/gcc/nios2-elf/5.3.0/../../../../../H-x86_64-mingw32/nios2-elf/lib\libc.a(lib_a-memcmp.o)
 .bss           0x000000000081129c        0x0 c:/software/altera/18.1/nios2eds/bin/gnu/h-x86_64-mingw32/bin/../lib/gcc/nios2-elf/5.3.0/../../../../../H-x86_64-mingw32/nios2-elf/lib\libc.a(lib_a-memcpy.o)
 .bss           0x000000000081129c        0x0 c:/software/altera/18.1/nios2eds/bin/gnu/h-x86_64-mingw32/bin/../lib/gcc/nios2-elf/5.3.0/../../../../../H-x86_64-mingw32/nios2-elf/lib\libc.a(lib_a-strlen.o)
 .bss           0x000000000081129c        0x0 c:/software/altera/18.1/nios2eds/bin/gnu/h-x86_64-mingw32/bin/../lib/gcc/nios2-elf/5.3.0/../../../../../H-x86_64-mingw32/nios2-elf/lib\libc.a(lib_a-__atexit.o)
 .bss           0x000000000081129c        0x0 c:/software/altera/18.1/nios2eds/bin/gnu/h-x86_64-mingw32/bin/../lib/gcc/nios2-elf/5.3.0/../../../../../H-x86_64-mingw32/nios2-elf/lib\libc.a(lib_a-__call_atexit.o)
 .bss           0x000000000081129c        0x0 ../Lab2_LOOP_AUDIO_bsp/\libhal_bsp.a(alt_exit.o)
 *(COMMON)
 COMMON         0x000000000081129c      0x100 ../Lab2_LOOP_AUDIO_bsp/\libhal_bsp.a(alt_irq_handler.o)
                0x000000000081129c                alt_irq
                0x000000000081139c                . = ALIGN (0x4)
                0x000000000081139c                __bss_end = ABSOLUTE (.)

.sdram_0        0x000000000081139c        0x0
                [!provide]                        PROVIDE (_alt_partition_sdram_0_start, ABSOLUTE (.))
 *(.sdram_0 .sdram_0. sdram_0.*)
                0x000000000081139c                . = ALIGN (0x4)
                [!provide]                        PROVIDE (_alt_partition_sdram_0_end, ABSOLUTE (.))
                0x000000000081139c                _end = ABSOLUTE (.)
                0x000000000081139c                end = ABSOLUTE (.)
                0x000000000081139c                __alt_stack_base = ABSOLUTE (.)
                [!provide]                        PROVIDE (_alt_partition_sdram_0_load_addr, LOADADDR (.sdram_0))

.stab
 *(.stab)

.stabstr
 *(.stabstr)

.stab.excl
 *(.stab.excl)

.stab.exclstr
 *(.stab.exclstr)

.stab.index
 *(.stab.index)

.stab.indexstr
 *(.stab.indexstr)

.comment        0x0000000000000000       0x23
 *(.comment)
 .comment       0x0000000000000000       0x23 obj/default/fatfs.o
                                         0x24 (size before relaxing)
 .comment       0x0000000000000023       0x24 obj/default/fatfs_diskio.o
 .comment       0x0000000000000023       0x24 obj/default/fatfs_nios2_de0_nano_spi.o
 .comment       0x0000000000000023       0x24 obj/default/fatfs_nios2_de1_pio.o
 .comment       0x0000000000000023       0x24 obj/default/fatfs_nios2_de1_spi.o
 .comment       0x0000000000000023       0x24 obj/default/ff.o
 .comment       0x0000000000000023       0x24 obj/default/hello_world.o
 .comment       0x0000000000000023       0x24 obj/default/monitor.o
 .comment       0x0000000000000023       0x24 obj/default/uart_nios2.o
 .comment       0x0000000000000023       0x24 c:/software/altera/18.1/nios2eds/bin/gnu/h-x86_64-mingw32/bin/../lib/gcc/nios2-elf/5.3.0\libgcc.a(lib2-divmod.o)
 .comment       0x0000000000000023       0x24 c:/software/altera/18.1/nios2eds/bin/gnu/h-x86_64-mingw32/bin/../lib/gcc/nios2-elf/5.3.0/../../../../../H-x86_64-mingw32/nios2-elf/lib\libc.a(lib_a-getc.o)
 .comment       0x0000000000000023       0x24 c:/software/altera/18.1/nios2eds/bin/gnu/h-x86_64-mingw32/bin/../lib/gcc/nios2-elf/5.3.0/../../../../../H-x86_64-mingw32/nios2-elf/lib\libc.a(lib_a-impure.o)
 .comment       0x0000000000000023       0x24 c:/software/altera/18.1/nios2eds/bin/gnu/h-x86_64-mingw32/bin/../lib/gcc/nios2-elf/5.3.0/../../../../../H-x86_64-mingw32/nios2-elf/lib\libc.a(lib_a-putchar.o)
 .comment       0x0000000000000023       0x24 c:/software/altera/18.1/nios2eds/bin/gnu/h-x86_64-mingw32/bin/../lib/gcc/nios2-elf/5.3.0/../../../../../H-x86_64-mingw32/nios2-elf/lib\libc.a(lib_a-rget.o)
 .comment       0x0000000000000023       0x24 c:/software/altera/18.1/nios2eds/bin/gnu/h-x86_64-mingw32/bin/../lib/gcc/nios2-elf/5.3.0/../../../../../H-x86_64-mingw32/nios2-elf/lib\libc.a(lib_a-findfp.o)
 .comment       0x0000000000000023       0x24 c:/software/altera/18.1/nios2eds/bin/gnu/h-x86_64-mingw32/bin/../lib/gcc/nios2-elf/5.3.0/../../../../../H-x86_64-mingw32/nios2-elf/lib\libc.a(lib_a-fwalk.o)
 .comment       0x0000000000000023       0x24 c:/software/altera/18.1/nios2eds/bin/gnu/h-x86_64-mingw32/bin/../lib/gcc/nios2-elf/5.3.0/../../../../../H-x86_64-mingw32/nios2-elf/lib\libc.a(lib_a-mallocr.o)
 .comment       0x0000000000000023       0x24 c:/software/altera/18.1/nios2eds/bin/gnu/h-x86_64-mingw32/bin/../lib/gcc/nios2-elf/5.3.0/../../../../../H-x86_64-mingw32/nios2-elf/lib\libc.a(lib_a-memset.o)
 .comment       0x0000000000000023       0x24 c:/software/altera/18.1/nios2eds/bin/gnu/h-x86_64-mingw32/bin/../lib/gcc/nios2-elf/5.3.0/../../../../../H-x86_64-mingw32/nios2-elf/lib\libc.a(lib_a-putc.o)
 .comment       0x0000000000000023       0x24 c:/software/altera/18.1/nios2eds/bin/gnu/h-x86_64-mingw32/bin/../lib/gcc/nios2-elf/5.3.0/../../../../../H-x86_64-mingw32/nios2-elf/lib\libc.a(lib_a-refill.o)
 .comment       0x0000000000000023       0x24 c:/software/altera/18.1/nios2eds/bin/gnu/h-x86_64-mingw32/bin/../lib/gcc/nios2-elf/5.3.0/../../../../../H-x86_64-mingw32/nios2-elf/lib\libc.a(lib_a-sbrkr.o)
 .comment       0x0000000000000023       0x24 c:/software/altera/18.1/nios2eds/bin/gnu/h-x86_64-mingw32/bin/../lib/gcc/nios2-elf/5.3.0/../../../../../H-x86_64-mingw32/nios2-elf/lib\libc.a(lib_a-stdio.o)
 .comment       0x0000000000000023       0x24 c:/software/altera/18.1/nios2eds/bin/gnu/h-x86_64-mingw32/bin/../lib/gcc/nios2-elf/5.3.0/../../../../../H-x86_64-mingw32/nios2-elf/lib\libc.a(lib_a-wbuf.o)
 .comment       0x0000000000000023       0x24 c:/software/altera/18.1/nios2eds/bin/gnu/h-x86_64-mingw32/bin/../lib/gcc/nios2-elf/5.3.0/../../../../../H-x86_64-mingw32/nios2-elf/lib\libc.a(lib_a-writer.o)
 .comment       0x0000000000000023       0x24 c:/software/altera/18.1/nios2eds/bin/gnu/h-x86_64-mingw32/bin/../lib/gcc/nios2-elf/5.3.0/../../../../../H-x86_64-mingw32/nios2-elf/lib\libc.a(lib_a-wsetup.o)
 .comment       0x0000000000000023       0x24 c:/software/altera/18.1/nios2eds/bin/gnu/h-x86_64-mingw32/bin/../lib/gcc/nios2-elf/5.3.0/../../../../../H-x86_64-mingw32/nios2-elf/lib\libc.a(closer.o)
 .comment       0x0000000000000023       0x24 c:/software/altera/18.1/nios2eds/bin/gnu/h-x86_64-mingw32/bin/../lib/gcc/nios2-elf/5.3.0/../../../../../H-x86_64-mingw32/nios2-elf/lib\libc.a(lib_a-fclose.o)
 .comment       0x0000000000000023       0x24 c:/software/altera/18.1/nios2eds/bin/gnu/h-x86_64-mingw32/bin/../lib/gcc/nios2-elf/5.3.0/../../../../../H-x86_64-mingw32/nios2-elf/lib\libc.a(lib_a-fflush.o)
 .comment       0x0000000000000023       0x24 c:/software/altera/18.1/nios2eds/bin/gnu/h-x86_64-mingw32/bin/../lib/gcc/nios2-elf/5.3.0/../../../../../H-x86_64-mingw32/nios2-elf/lib\libc.a(lib_a-freer.o)
 .comment       0x0000000000000023       0x24 c:/software/altera/18.1/nios2eds/bin/gnu/h-x86_64-mingw32/bin/../lib/gcc/nios2-elf/5.3.0/../../../../../H-x86_64-mingw32/nios2-elf/lib\libc.a(lib_a-int_errno.o)
 .comment       0x0000000000000023       0x24 c:/software/altera/18.1/nios2eds/bin/gnu/h-x86_64-mingw32/bin/../lib/gcc/nios2-elf/5.3.0/../../../../../H-x86_64-mingw32/nios2-elf/lib\libc.a(lib_a-lseekr.o)
 .comment       0x0000000000000023       0x24 c:/software/altera/18.1/nios2eds/bin/gnu/h-x86_64-mingw32/bin/../lib/gcc/nios2-elf/5.3.0/../../../../../H-x86_64-mingw32/nios2-elf/lib\libc.a(lib_a-makebuf.o)
 .comment       0x0000000000000023       0x24 c:/software/altera/18.1/nios2eds/bin/gnu/h-x86_64-mingw32/bin/../lib/gcc/nios2-elf/5.3.0/../../../../../H-x86_64-mingw32/nios2-elf/lib\libc.a(lib_a-readr.o)
 .comment       0x0000000000000023       0x24 c:/software/altera/18.1/nios2eds/bin/gnu/h-x86_64-mingw32/bin/../lib/gcc/nios2-elf/5.3.0/../../../../../H-x86_64-mingw32/nios2-elf/lib\libc.a(lib_a-fstatr.o)
 .comment       0x0000000000000023       0x24 c:/software/altera/18.1/nios2eds/bin/gnu/h-x86_64-mingw32/bin/../lib/gcc/nios2-elf/5.3.0/../../../../../H-x86_64-mingw32/nios2-elf/lib\libc.a(lib_a-isattyr.o)
 .comment       0x0000000000000023       0x24 ../Lab2_LOOP_AUDIO_bsp/\libhal_bsp.a(alt_close.o)
 .comment       0x0000000000000023       0x24 ../Lab2_LOOP_AUDIO_bsp/\libhal_bsp.a(alt_dev.o)
 .comment       0x0000000000000023       0x24 ../Lab2_LOOP_AUDIO_bsp/\libhal_bsp.a(alt_errno.o)
 .comment       0x0000000000000023       0x24 ../Lab2_LOOP_AUDIO_bsp/\libhal_bsp.a(alt_fstat.o)
 .comment       0x0000000000000023       0x24 ../Lab2_LOOP_AUDIO_bsp/\libhal_bsp.a(alt_isatty.o)
 .comment       0x0000000000000023       0x24 ../Lab2_LOOP_AUDIO_bsp/\libhal_bsp.a(alt_load.o)
 .comment       0x0000000000000023       0x24 ../Lab2_LOOP_AUDIO_bsp/\libhal_bsp.a(alt_lseek.o)
 .comment       0x0000000000000023       0x24 ../Lab2_LOOP_AUDIO_bsp/\libhal_bsp.a(alt_main.o)
 .comment       0x0000000000000023       0x24 ../Lab2_LOOP_AUDIO_bsp/\libhal_bsp.a(alt_malloc_lock.o)
 .comment       0x0000000000000023       0x24 ../Lab2_LOOP_AUDIO_bsp/\libhal_bsp.a(alt_printf.o)
 .comment       0x0000000000000023       0x24 ../Lab2_LOOP_AUDIO_bsp/\libhal_bsp.a(alt_putchar.o)
 .comment       0x0000000000000023       0x24 ../Lab2_LOOP_AUDIO_bsp/\libhal_bsp.a(alt_read.o)
 .comment       0x0000000000000023       0x24 ../Lab2_LOOP_AUDIO_bsp/\libhal_bsp.a(alt_release_fd.o)
 .comment       0x0000000000000023       0x24 ../Lab2_LOOP_AUDIO_bsp/\libhal_bsp.a(alt_sbrk.o)
 .comment       0x0000000000000023       0x24 ../Lab2_LOOP_AUDIO_bsp/\libhal_bsp.a(alt_write.o)
 .comment       0x0000000000000023       0x24 ../Lab2_LOOP_AUDIO_bsp/\libhal_bsp.a(alt_sys_init.o)
 .comment       0x0000000000000023       0x24 ../Lab2_LOOP_AUDIO_bsp/\libhal_bsp.a(altera_avalon_jtag_uart_fd.o)
 .comment       0x0000000000000023       0x24 ../Lab2_LOOP_AUDIO_bsp/\libhal_bsp.a(altera_avalon_jtag_uart_read.o)
 .comment       0x0000000000000023       0x24 ../Lab2_LOOP_AUDIO_bsp/\libhal_bsp.a(altera_avalon_jtag_uart_write.o)
 .comment       0x0000000000000023       0x24 ../Lab2_LOOP_AUDIO_bsp/\libhal_bsp.a(altera_avalon_lcd_16207.o)
 .comment       0x0000000000000023       0x24 ../Lab2_LOOP_AUDIO_bsp/\libhal_bsp.a(altera_avalon_lcd_16207_fd.o)
 .comment       0x0000000000000023       0x24 ../Lab2_LOOP_AUDIO_bsp/\libhal_bsp.a(altera_avalon_timer_sc.o)
 .comment       0x0000000000000023       0x24 ../Lab2_LOOP_AUDIO_bsp/\libhal_bsp.a(altera_avalon_uart_fd.o)
 .comment       0x0000000000000023       0x24 ../Lab2_LOOP_AUDIO_bsp/\libhal_bsp.a(altera_avalon_uart_init.o)
 .comment       0x0000000000000023       0x24 ../Lab2_LOOP_AUDIO_bsp/\libhal_bsp.a(altera_avalon_uart_read.o)
 .comment       0x0000000000000023       0x24 ../Lab2_LOOP_AUDIO_bsp/\libhal_bsp.a(altera_avalon_uart_write.o)
 .comment       0x0000000000000023       0x24 ../Lab2_LOOP_AUDIO_bsp/\libhal_bsp.a(altera_up_avalon_audio.o)
 .comment       0x0000000000000023       0x24 ../Lab2_LOOP_AUDIO_bsp/\libhal_bsp.a(alt_alarm_start.o)
 .comment       0x0000000000000023       0x24 ../Lab2_LOOP_AUDIO_bsp/\libhal_bsp.a(alt_dcache_flush_all.o)
 .comment       0x0000000000000023       0x24 ../Lab2_LOOP_AUDIO_bsp/\libhal_bsp.a(alt_dev_llist_insert.o)
 .comment       0x0000000000000023       0x24 ../Lab2_LOOP_AUDIO_bsp/\libhal_bsp.a(alt_do_ctors.o)
 .comment       0x0000000000000023       0x24 ../Lab2_LOOP_AUDIO_bsp/\libhal_bsp.a(alt_do_dtors.o)
 .comment       0x0000000000000023       0x24 ../Lab2_LOOP_AUDIO_bsp/\libhal_bsp.a(alt_find_dev.o)
 .comment       0x0000000000000023       0x24 ../Lab2_LOOP_AUDIO_bsp/\libhal_bsp.a(alt_icache_flush_all.o)
 .comment       0x0000000000000023       0x24 ../Lab2_LOOP_AUDIO_bsp/\libhal_bsp.a(alt_io_redirect.o)
 .comment       0x0000000000000023       0x24 ../Lab2_LOOP_AUDIO_bsp/\libhal_bsp.a(alt_irq_register.o)
 .comment       0x0000000000000023       0x24 ../Lab2_LOOP_AUDIO_bsp/\libhal_bsp.a(alt_irq_vars.o)
 .comment       0x0000000000000023       0x24 ../Lab2_LOOP_AUDIO_bsp/\libhal_bsp.a(alt_open.o)
 .comment       0x0000000000000023       0x24 ../Lab2_LOOP_AUDIO_bsp/\libhal_bsp.a(alt_tick.o)
 .comment       0x0000000000000023       0x24 ../Lab2_LOOP_AUDIO_bsp/\libhal_bsp.a(alt_usleep.o)
 .comment       0x0000000000000023       0x24 ../Lab2_LOOP_AUDIO_bsp/\libhal_bsp.a(altera_nios2_gen2_irq.o)
 .comment       0x0000000000000023       0x24 ../Lab2_LOOP_AUDIO_bsp/\libhal_bsp.a(alt_busy_sleep.o)
 .comment       0x0000000000000023       0x24 ../Lab2_LOOP_AUDIO_bsp/\libhal_bsp.a(alt_find_file.o)
 .comment       0x0000000000000023       0x24 ../Lab2_LOOP_AUDIO_bsp/\libhal_bsp.a(alt_get_fd.o)
 .comment       0x0000000000000023       0x24 ../Lab2_LOOP_AUDIO_bsp/\libhal_bsp.a(alt_icache_flush.o)
 .comment       0x0000000000000023       0x24 ../Lab2_LOOP_AUDIO_bsp/\libhal_bsp.a(alt_irq_handler.o)
 .comment       0x0000000000000023       0x24 ../Lab2_LOOP_AUDIO_bsp/\libhal_bsp.a(alt_instruction_exception_entry.o)
 .comment       0x0000000000000023       0x24 c:/software/altera/18.1/nios2eds/bin/gnu/h-x86_64-mingw32/bin/../lib/gcc/nios2-elf/5.3.0/../../../../../H-x86_64-mingw32/nios2-elf/lib\libc.a(lib_a-atexit.o)
 .comment       0x0000000000000023       0x24 c:/software/altera/18.1/nios2eds/bin/gnu/h-x86_64-mingw32/bin/../lib/gcc/nios2-elf/5.3.0/../../../../../H-x86_64-mingw32/nios2-elf/lib\libc.a(lib_a-ctype_.o)
 .comment       0x0000000000000023       0x24 c:/software/altera/18.1/nios2eds/bin/gnu/h-x86_64-mingw32/bin/../lib/gcc/nios2-elf/5.3.0/../../../../../H-x86_64-mingw32/nios2-elf/lib\libc.a(lib_a-exit.o)
 .comment       0x0000000000000023       0x24 c:/software/altera/18.1/nios2eds/bin/gnu/h-x86_64-mingw32/bin/../lib/gcc/nios2-elf/5.3.0/../../../../../H-x86_64-mingw32/nios2-elf/lib\libc.a(lib_a-memcmp.o)
 .comment       0x0000000000000023       0x24 c:/software/altera/18.1/nios2eds/bin/gnu/h-x86_64-mingw32/bin/../lib/gcc/nios2-elf/5.3.0/../../../../../H-x86_64-mingw32/nios2-elf/lib\libc.a(lib_a-memcpy.o)
 .comment       0x0000000000000023       0x24 c:/software/altera/18.1/nios2eds/bin/gnu/h-x86_64-mingw32/bin/../lib/gcc/nios2-elf/5.3.0/../../../../../H-x86_64-mingw32/nios2-elf/lib\libc.a(lib_a-strlen.o)
 .comment       0x0000000000000023       0x24 c:/software/altera/18.1/nios2eds/bin/gnu/h-x86_64-mingw32/bin/../lib/gcc/nios2-elf/5.3.0/../../../../../H-x86_64-mingw32/nios2-elf/lib\libc.a(lib_a-__atexit.o)
 .comment       0x0000000000000023       0x24 c:/software/altera/18.1/nios2eds/bin/gnu/h-x86_64-mingw32/bin/../lib/gcc/nios2-elf/5.3.0/../../../../../H-x86_64-mingw32/nios2-elf/lib\libc.a(lib_a-__call_atexit.o)
 .comment       0x0000000000000023       0x24 ../Lab2_LOOP_AUDIO_bsp/\libhal_bsp.a(alt_exit.o)

.debug
 *(.debug)

.line
 *(.line)

.debug_srcinfo
 *(.debug_srcinfo)

.debug_sfnames
 *(.debug_sfnames)

.debug_aranges  0x0000000000000000      0xc30
 *(.debug_aranges)
 .debug_aranges
                0x0000000000000000       0x28 ../Lab2_LOOP_AUDIO_bsp//obj/HAL/src/crt0.o
 .debug_aranges
                0x0000000000000028       0x20 obj/default/fatfs.o
 .debug_aranges
                0x0000000000000048       0x20 obj/default/fatfs_diskio.o
 .debug_aranges
                0x0000000000000068       0x20 obj/default/ff.o
 .debug_aranges
                0x0000000000000088       0x20 obj/default/hello_world.o
 .debug_aranges
                0x00000000000000a8       0x20 obj/default/monitor.o
 .debug_aranges
                0x00000000000000c8       0x20 obj/default/uart_nios2.o
 .debug_aranges
                0x00000000000000e8       0x20 c:/software/altera/18.1/nios2eds/bin/gnu/h-x86_64-mingw32/bin/../lib/gcc/nios2-elf/5.3.0\libgcc.a(lib2-divmod.o)
 .debug_aranges
                0x0000000000000108       0x28 c:/software/altera/18.1/nios2eds/bin/gnu/h-x86_64-mingw32/bin/../lib/gcc/nios2-elf/5.3.0/../../../../../H-x86_64-mingw32/nios2-elf/lib\libc.a(lib_a-getc.o)
 .debug_aranges
                0x0000000000000130       0x18 c:/software/altera/18.1/nios2eds/bin/gnu/h-x86_64-mingw32/bin/../lib/gcc/nios2-elf/5.3.0/../../../../../H-x86_64-mingw32/nios2-elf/lib\libc.a(lib_a-impure.o)
 .debug_aranges
                0x0000000000000148       0x28 c:/software/altera/18.1/nios2eds/bin/gnu/h-x86_64-mingw32/bin/../lib/gcc/nios2-elf/5.3.0/../../../../../H-x86_64-mingw32/nios2-elf/lib\libc.a(lib_a-putchar.o)
 .debug_aranges
                0x0000000000000170       0x28 c:/software/altera/18.1/nios2eds/bin/gnu/h-x86_64-mingw32/bin/../lib/gcc/nios2-elf/5.3.0/../../../../../H-x86_64-mingw32/nios2-elf/lib\libc.a(lib_a-rget.o)
 .debug_aranges
                0x0000000000000198       0x68 c:/software/altera/18.1/nios2eds/bin/gnu/h-x86_64-mingw32/bin/../lib/gcc/nios2-elf/5.3.0/../../../../../H-x86_64-mingw32/nios2-elf/lib\libc.a(lib_a-findfp.o)
 .debug_aranges
                0x0000000000000200       0x28 c:/software/altera/18.1/nios2eds/bin/gnu/h-x86_64-mingw32/bin/../lib/gcc/nios2-elf/5.3.0/../../../../../H-x86_64-mingw32/nios2-elf/lib\libc.a(lib_a-fwalk.o)
 .debug_aranges
                0x0000000000000228       0x20 c:/software/altera/18.1/nios2eds/bin/gnu/h-x86_64-mingw32/bin/../lib/gcc/nios2-elf/5.3.0/../../../../../H-x86_64-mingw32/nios2-elf/lib\libc.a(lib_a-mallocr.o)
 .debug_aranges
                0x0000000000000248       0x20 c:/software/altera/18.1/nios2eds/bin/gnu/h-x86_64-mingw32/bin/../lib/gcc/nios2-elf/5.3.0/../../../../../H-x86_64-mingw32/nios2-elf/lib\libc.a(lib_a-memset.o)
 .debug_aranges
                0x0000000000000268       0x28 c:/software/altera/18.1/nios2eds/bin/gnu/h-x86_64-mingw32/bin/../lib/gcc/nios2-elf/5.3.0/../../../../../H-x86_64-mingw32/nios2-elf/lib\libc.a(lib_a-putc.o)
 .debug_aranges
                0x0000000000000290       0x28 c:/software/altera/18.1/nios2eds/bin/gnu/h-x86_64-mingw32/bin/../lib/gcc/nios2-elf/5.3.0/../../../../../H-x86_64-mingw32/nios2-elf/lib\libc.a(lib_a-refill.o)
 .debug_aranges
                0x00000000000002b8       0x20 c:/software/altera/18.1/nios2eds/bin/gnu/h-x86_64-mingw32/bin/../lib/gcc/nios2-elf/5.3.0/../../../../../H-x86_64-mingw32/nios2-elf/lib\libc.a(lib_a-sbrkr.o)
 .debug_aranges
                0x00000000000002d8       0x40 c:/software/altera/18.1/nios2eds/bin/gnu/h-x86_64-mingw32/bin/../lib/gcc/nios2-elf/5.3.0/../../../../../H-x86_64-mingw32/nios2-elf/lib\libc.a(lib_a-stdio.o)
 .debug_aranges
                0x0000000000000318       0x28 c:/software/altera/18.1/nios2eds/bin/gnu/h-x86_64-mingw32/bin/../lib/gcc/nios2-elf/5.3.0/../../../../../H-x86_64-mingw32/nios2-elf/lib\libc.a(lib_a-wbuf.o)
 .debug_aranges
                0x0000000000000340       0x20 c:/software/altera/18.1/nios2eds/bin/gnu/h-x86_64-mingw32/bin/../lib/gcc/nios2-elf/5.3.0/../../../../../H-x86_64-mingw32/nios2-elf/lib\libc.a(lib_a-writer.o)
 .debug_aranges
                0x0000000000000360       0x20 c:/software/altera/18.1/nios2eds/bin/gnu/h-x86_64-mingw32/bin/../lib/gcc/nios2-elf/5.3.0/../../../../../H-x86_64-mingw32/nios2-elf/lib\libc.a(lib_a-wsetup.o)
 .debug_aranges
                0x0000000000000380       0x20 c:/software/altera/18.1/nios2eds/bin/gnu/h-x86_64-mingw32/bin/../lib/gcc/nios2-elf/5.3.0/../../../../../H-x86_64-mingw32/nios2-elf/lib\libc.a(closer.o)
 .debug_aranges
                0x00000000000003a0       0x28 c:/software/altera/18.1/nios2eds/bin/gnu/h-x86_64-mingw32/bin/../lib/gcc/nios2-elf/5.3.0/../../../../../H-x86_64-mingw32/nios2-elf/lib\libc.a(lib_a-fclose.o)
 .debug_aranges
                0x00000000000003c8       0x30 c:/software/altera/18.1/nios2eds/bin/gnu/h-x86_64-mingw32/bin/../lib/gcc/nios2-elf/5.3.0/../../../../../H-x86_64-mingw32/nios2-elf/lib\libc.a(lib_a-fflush.o)
 .debug_aranges
                0x00000000000003f8       0x28 c:/software/altera/18.1/nios2eds/bin/gnu/h-x86_64-mingw32/bin/../lib/gcc/nios2-elf/5.3.0/../../../../../H-x86_64-mingw32/nios2-elf/lib\libc.a(lib_a-freer.o)
 .debug_aranges
                0x0000000000000420       0x18 c:/software/altera/18.1/nios2eds/bin/gnu/h-x86_64-mingw32/bin/../lib/gcc/nios2-elf/5.3.0/../../../../../H-x86_64-mingw32/nios2-elf/lib\libc.a(lib_a-int_errno.o)
 .debug_aranges
                0x0000000000000438       0x20 c:/software/altera/18.1/nios2eds/bin/gnu/h-x86_64-mingw32/bin/../lib/gcc/nios2-elf/5.3.0/../../../../../H-x86_64-mingw32/nios2-elf/lib\libc.a(lib_a-lseekr.o)
 .debug_aranges
                0x0000000000000458       0x20 c:/software/altera/18.1/nios2eds/bin/gnu/h-x86_64-mingw32/bin/../lib/gcc/nios2-elf/5.3.0/../../../../../H-x86_64-mingw32/nios2-elf/lib\libc.a(lib_a-makebuf.o)
 .debug_aranges
                0x0000000000000478       0x20 c:/software/altera/18.1/nios2eds/bin/gnu/h-x86_64-mingw32/bin/../lib/gcc/nios2-elf/5.3.0/../../../../../H-x86_64-mingw32/nios2-elf/lib\libc.a(lib_a-readr.o)
 .debug_aranges
                0x0000000000000498       0x20 c:/software/altera/18.1/nios2eds/bin/gnu/h-x86_64-mingw32/bin/../lib/gcc/nios2-elf/5.3.0/../../../../../H-x86_64-mingw32/nios2-elf/lib\libc.a(lib_a-fstatr.o)
 .debug_aranges
                0x00000000000004b8       0x20 c:/software/altera/18.1/nios2eds/bin/gnu/h-x86_64-mingw32/bin/../lib/gcc/nios2-elf/5.3.0/../../../../../H-x86_64-mingw32/nios2-elf/lib\libc.a(lib_a-isattyr.o)
 .debug_aranges
                0x00000000000004d8       0x20 ../Lab2_LOOP_AUDIO_bsp/\libhal_bsp.a(alt_close.o)
 .debug_aranges
                0x00000000000004f8       0x20 ../Lab2_LOOP_AUDIO_bsp/\libhal_bsp.a(alt_dev.o)
 .debug_aranges
                0x0000000000000518       0x18 ../Lab2_LOOP_AUDIO_bsp/\libhal_bsp.a(alt_errno.o)
 .debug_aranges
                0x0000000000000530       0x20 ../Lab2_LOOP_AUDIO_bsp/\libhal_bsp.a(alt_fstat.o)
 .debug_aranges
                0x0000000000000550       0x20 ../Lab2_LOOP_AUDIO_bsp/\libhal_bsp.a(alt_isatty.o)
 .debug_aranges
                0x0000000000000570       0x20 ../Lab2_LOOP_AUDIO_bsp/\libhal_bsp.a(alt_load.o)
 .debug_aranges
                0x0000000000000590       0x20 ../Lab2_LOOP_AUDIO_bsp/\libhal_bsp.a(alt_lseek.o)
 .debug_aranges
                0x00000000000005b0       0x20 ../Lab2_LOOP_AUDIO_bsp/\libhal_bsp.a(alt_main.o)
 .debug_aranges
                0x00000000000005d0       0x20 ../Lab2_LOOP_AUDIO_bsp/\libhal_bsp.a(alt_malloc_lock.o)
 .debug_aranges
                0x00000000000005f0       0x20 ../Lab2_LOOP_AUDIO_bsp/\libhal_bsp.a(alt_printf.o)
 .debug_aranges
                0x0000000000000610       0x20 ../Lab2_LOOP_AUDIO_bsp/\libhal_bsp.a(alt_putchar.o)
 .debug_aranges
                0x0000000000000630       0x20 ../Lab2_LOOP_AUDIO_bsp/\libhal_bsp.a(alt_read.o)
 .debug_aranges
                0x0000000000000650       0x20 ../Lab2_LOOP_AUDIO_bsp/\libhal_bsp.a(alt_release_fd.o)
 .debug_aranges
                0x0000000000000670       0x20 ../Lab2_LOOP_AUDIO_bsp/\libhal_bsp.a(alt_sbrk.o)
 .debug_aranges
                0x0000000000000690       0x20 ../Lab2_LOOP_AUDIO_bsp/\libhal_bsp.a(alt_write.o)
 .debug_aranges
                0x00000000000006b0       0x20 ../Lab2_LOOP_AUDIO_bsp/\libhal_bsp.a(alt_sys_init.o)
 .debug_aranges
                0x00000000000006d0       0x20 ../Lab2_LOOP_AUDIO_bsp/\libhal_bsp.a(altera_avalon_jtag_uart_fd.o)
 .debug_aranges
                0x00000000000006f0       0x20 ../Lab2_LOOP_AUDIO_bsp/\libhal_bsp.a(altera_avalon_jtag_uart_read.o)
 .debug_aranges
                0x0000000000000710       0x20 ../Lab2_LOOP_AUDIO_bsp/\libhal_bsp.a(altera_avalon_jtag_uart_write.o)
 .debug_aranges
                0x0000000000000730       0x20 ../Lab2_LOOP_AUDIO_bsp/\libhal_bsp.a(altera_avalon_lcd_16207.o)
 .debug_aranges
                0x0000000000000750       0x20 ../Lab2_LOOP_AUDIO_bsp/\libhal_bsp.a(altera_avalon_lcd_16207_fd.o)
 .debug_aranges
                0x0000000000000770       0x20 ../Lab2_LOOP_AUDIO_bsp/\libhal_bsp.a(altera_avalon_timer_sc.o)
 .debug_aranges
                0x0000000000000790       0x20 ../Lab2_LOOP_AUDIO_bsp/\libhal_bsp.a(altera_avalon_uart_fd.o)
 .debug_aranges
                0x00000000000007b0       0x20 ../Lab2_LOOP_AUDIO_bsp/\libhal_bsp.a(altera_avalon_uart_init.o)
 .debug_aranges
                0x00000000000007d0       0x20 ../Lab2_LOOP_AUDIO_bsp/\libhal_bsp.a(altera_avalon_uart_read.o)
 .debug_aranges
                0x00000000000007f0       0x20 ../Lab2_LOOP_AUDIO_bsp/\libhal_bsp.a(altera_avalon_uart_write.o)
 .debug_aranges
                0x0000000000000810       0x20 ../Lab2_LOOP_AUDIO_bsp/\libhal_bsp.a(altera_up_avalon_audio.o)
 .debug_aranges
                0x0000000000000830       0x20 ../Lab2_LOOP_AUDIO_bsp/\libhal_bsp.a(alt_alarm_start.o)
 .debug_aranges
                0x0000000000000850       0x20 ../Lab2_LOOP_AUDIO_bsp/\libhal_bsp.a(alt_dcache_flush_all.o)
 .debug_aranges
                0x0000000000000870       0x20 ../Lab2_LOOP_AUDIO_bsp/\libhal_bsp.a(alt_dev_llist_insert.o)
 .debug_aranges
                0x0000000000000890       0x20 ../Lab2_LOOP_AUDIO_bsp/\libhal_bsp.a(alt_do_ctors.o)
 .debug_aranges
                0x00000000000008b0       0x20 ../Lab2_LOOP_AUDIO_bsp/\libhal_bsp.a(alt_do_dtors.o)
 .debug_aranges
                0x00000000000008d0       0x20 ../Lab2_LOOP_AUDIO_bsp/\libhal_bsp.a(alt_find_dev.o)
 .debug_aranges
                0x00000000000008f0       0x20 ../Lab2_LOOP_AUDIO_bsp/\libhal_bsp.a(alt_icache_flush_all.o)
 .debug_aranges
                0x0000000000000910       0x20 ../Lab2_LOOP_AUDIO_bsp/\libhal_bsp.a(alt_io_redirect.o)
 .debug_aranges
                0x0000000000000930       0x20 ../Lab2_LOOP_AUDIO_bsp/\libhal_bsp.a(alt_irq_register.o)
 .debug_aranges
                0x0000000000000950       0x18 ../Lab2_LOOP_AUDIO_bsp/\libhal_bsp.a(alt_irq_vars.o)
 .debug_aranges
                0x0000000000000968       0x20 ../Lab2_LOOP_AUDIO_bsp/\libhal_bsp.a(alt_open.o)
 .debug_aranges
                0x0000000000000988       0x20 ../Lab2_LOOP_AUDIO_bsp/\libhal_bsp.a(alt_tick.o)
 .debug_aranges
                0x00000000000009a8       0x20 ../Lab2_LOOP_AUDIO_bsp/\libhal_bsp.a(alt_usleep.o)
 .debug_aranges
                0x00000000000009c8       0x20 ../Lab2_LOOP_AUDIO_bsp/\libhal_bsp.a(altera_nios2_gen2_irq.o)
 .debug_aranges
                0x00000000000009e8       0x20 ../Lab2_LOOP_AUDIO_bsp/\libhal_bsp.a(alt_busy_sleep.o)
 .debug_aranges
                0x0000000000000a08       0x20 ../Lab2_LOOP_AUDIO_bsp/\libhal_bsp.a(alt_find_file.o)
 .debug_aranges
                0x0000000000000a28       0x20 ../Lab2_LOOP_AUDIO_bsp/\libhal_bsp.a(alt_get_fd.o)
 .debug_aranges
                0x0000000000000a48       0x20 ../Lab2_LOOP_AUDIO_bsp/\libhal_bsp.a(alt_icache_flush.o)
 .debug_aranges
                0x0000000000000a68       0x30 ../Lab2_LOOP_AUDIO_bsp/\libhal_bsp.a(alt_irq_entry.o)
 .debug_aranges
                0x0000000000000a98       0x20 ../Lab2_LOOP_AUDIO_bsp/\libhal_bsp.a(alt_irq_handler.o)
 .debug_aranges
                0x0000000000000ab8       0x38 ../Lab2_LOOP_AUDIO_bsp/\libhal_bsp.a(alt_exception_entry.o)
 .debug_aranges
                0x0000000000000af0       0x28 ../Lab2_LOOP_AUDIO_bsp/\libhal_bsp.a(alt_instruction_exception_entry.o)
 .debug_aranges
                0x0000000000000b18       0x20 c:/software/altera/18.1/nios2eds/bin/gnu/h-x86_64-mingw32/bin/../lib/gcc/nios2-elf/5.3.0/../../../../../H-x86_64-mingw32/nios2-elf/lib\libc.a(lib_a-atexit.o)
 .debug_aranges
                0x0000000000000b38       0x18 c:/software/altera/18.1/nios2eds/bin/gnu/h-x86_64-mingw32/bin/../lib/gcc/nios2-elf/5.3.0/../../../../../H-x86_64-mingw32/nios2-elf/lib\libc.a(lib_a-ctype_.o)
 .debug_aranges
                0x0000000000000b50       0x20 c:/software/altera/18.1/nios2eds/bin/gnu/h-x86_64-mingw32/bin/../lib/gcc/nios2-elf/5.3.0/../../../../../H-x86_64-mingw32/nios2-elf/lib\libc.a(lib_a-exit.o)
 .debug_aranges
                0x0000000000000b70       0x20 c:/software/altera/18.1/nios2eds/bin/gnu/h-x86_64-mingw32/bin/../lib/gcc/nios2-elf/5.3.0/../../../../../H-x86_64-mingw32/nios2-elf/lib\libc.a(lib_a-memcmp.o)
 .debug_aranges
                0x0000000000000b90       0x20 c:/software/altera/18.1/nios2eds/bin/gnu/h-x86_64-mingw32/bin/../lib/gcc/nios2-elf/5.3.0/../../../../../H-x86_64-mingw32/nios2-elf/lib\libc.a(lib_a-memcpy.o)
 .debug_aranges
                0x0000000000000bb0       0x20 c:/software/altera/18.1/nios2eds/bin/gnu/h-x86_64-mingw32/bin/../lib/gcc/nios2-elf/5.3.0/../../../../../H-x86_64-mingw32/nios2-elf/lib\libc.a(lib_a-strlen.o)
 .debug_aranges
                0x0000000000000bd0       0x20 c:/software/altera/18.1/nios2eds/bin/gnu/h-x86_64-mingw32/bin/../lib/gcc/nios2-elf/5.3.0/../../../../../H-x86_64-mingw32/nios2-elf/lib\libc.a(lib_a-__atexit.o)
 .debug_aranges
                0x0000000000000bf0       0x20 c:/software/altera/18.1/nios2eds/bin/gnu/h-x86_64-mingw32/bin/../lib/gcc/nios2-elf/5.3.0/../../../../../H-x86_64-mingw32/nios2-elf/lib\libc.a(lib_a-__call_atexit.o)
 .debug_aranges
                0x0000000000000c10       0x20 ../Lab2_LOOP_AUDIO_bsp/\libhal_bsp.a(alt_exit.o)

.debug_pubnames
 *(.debug_pubnames)

.debug_info     0x0000000000000000    0x1cdb7
 *(.debug_info .gnu.linkonce.wi.*)
 .debug_info    0x0000000000000000       0x76 ../Lab2_LOOP_AUDIO_bsp//obj/HAL/src/crt0.o
 .debug_info    0x0000000000000076       0xb0 obj/default/fatfs.o
 .debug_info    0x0000000000000126      0x5f1 obj/default/fatfs_diskio.o
 .debug_info    0x0000000000000717     0x1a65 obj/default/ff.o
 .debug_info    0x000000000000217c      0x359 obj/default/hello_world.o
 .debug_info    0x00000000000024d5      0x2f6 obj/default/monitor.o
 .debug_info    0x00000000000027cb      0x955 obj/default/uart_nios2.o
 .debug_info    0x0000000000003120      0x2c6 c:/software/altera/18.1/nios2eds/bin/gnu/h-x86_64-mingw32/bin/../lib/gcc/nios2-elf/5.3.0\libgcc.a(lib2-divmod.o)
 .debug_info    0x00000000000033e6      0x9a2 c:/software/altera/18.1/nios2eds/bin/gnu/h-x86_64-mingw32/bin/../lib/gcc/nios2-elf/5.3.0/../../../../../H-x86_64-mingw32/nios2-elf/lib\libc.a(lib_a-getc.o)
 .debug_info    0x0000000000003d88      0x8a1 c:/software/altera/18.1/nios2eds/bin/gnu/h-x86_64-mingw32/bin/../lib/gcc/nios2-elf/5.3.0/../../../../../H-x86_64-mingw32/nios2-elf/lib\libc.a(lib_a-impure.o)
 .debug_info    0x0000000000004629      0x922 c:/software/altera/18.1/nios2eds/bin/gnu/h-x86_64-mingw32/bin/../lib/gcc/nios2-elf/5.3.0/../../../../../H-x86_64-mingw32/nios2-elf/lib\libc.a(lib_a-putchar.o)
 .debug_info    0x0000000000004f4b      0x950 c:/software/altera/18.1/nios2eds/bin/gnu/h-x86_64-mingw32/bin/../lib/gcc/nios2-elf/5.3.0/../../../../../H-x86_64-mingw32/nios2-elf/lib\libc.a(lib_a-rget.o)
 .debug_info    0x000000000000589b      0xd37 c:/software/altera/18.1/nios2eds/bin/gnu/h-x86_64-mingw32/bin/../lib/gcc/nios2-elf/5.3.0/../../../../../H-x86_64-mingw32/nios2-elf/lib\libc.a(lib_a-findfp.o)
 .debug_info    0x00000000000065d2      0x9b0 c:/software/altera/18.1/nios2eds/bin/gnu/h-x86_64-mingw32/bin/../lib/gcc/nios2-elf/5.3.0/../../../../../H-x86_64-mingw32/nios2-elf/lib\libc.a(lib_a-fwalk.o)
 .debug_info    0x0000000000006f82      0xd57 c:/software/altera/18.1/nios2eds/bin/gnu/h-x86_64-mingw32/bin/../lib/gcc/nios2-elf/5.3.0/../../../../../H-x86_64-mingw32/nios2-elf/lib\libc.a(lib_a-mallocr.o)
 .debug_info    0x0000000000007cd9      0x121 c:/software/altera/18.1/nios2eds/bin/gnu/h-x86_64-mingw32/bin/../lib/gcc/nios2-elf/5.3.0/../../../../../H-x86_64-mingw32/nios2-elf/lib\libc.a(lib_a-memset.o)
 .debug_info    0x0000000000007dfa      0x9b4 c:/software/altera/18.1/nios2eds/bin/gnu/h-x86_64-mingw32/bin/../lib/gcc/nios2-elf/5.3.0/../../../../../H-x86_64-mingw32/nios2-elf/lib\libc.a(lib_a-putc.o)
 .debug_info    0x00000000000087ae      0xa08 c:/software/altera/18.1/nios2eds/bin/gnu/h-x86_64-mingw32/bin/../lib/gcc/nios2-elf/5.3.0/../../../../../H-x86_64-mingw32/nios2-elf/lib\libc.a(lib_a-refill.o)
 .debug_info    0x00000000000091b6      0x900 c:/software/altera/18.1/nios2eds/bin/gnu/h-x86_64-mingw32/bin/../lib/gcc/nios2-elf/5.3.0/../../../../../H-x86_64-mingw32/nios2-elf/lib\libc.a(lib_a-sbrkr.o)
 .debug_info    0x0000000000009ab6      0xb32 c:/software/altera/18.1/nios2eds/bin/gnu/h-x86_64-mingw32/bin/../lib/gcc/nios2-elf/5.3.0/../../../../../H-x86_64-mingw32/nios2-elf/lib\libc.a(lib_a-stdio.o)
 .debug_info    0x000000000000a5e8      0x9be c:/software/altera/18.1/nios2eds/bin/gnu/h-x86_64-mingw32/bin/../lib/gcc/nios2-elf/5.3.0/../../../../../H-x86_64-mingw32/nios2-elf/lib\libc.a(lib_a-wbuf.o)
 .debug_info    0x000000000000afa6      0x928 c:/software/altera/18.1/nios2eds/bin/gnu/h-x86_64-mingw32/bin/../lib/gcc/nios2-elf/5.3.0/../../../../../H-x86_64-mingw32/nios2-elf/lib\libc.a(lib_a-writer.o)
 .debug_info    0x000000000000b8ce      0x936 c:/software/altera/18.1/nios2eds/bin/gnu/h-x86_64-mingw32/bin/../lib/gcc/nios2-elf/5.3.0/../../../../../H-x86_64-mingw32/nios2-elf/lib\libc.a(lib_a-wsetup.o)
 .debug_info    0x000000000000c204      0x8df c:/software/altera/18.1/nios2eds/bin/gnu/h-x86_64-mingw32/bin/../lib/gcc/nios2-elf/5.3.0/../../../../../H-x86_64-mingw32/nios2-elf/lib\libc.a(closer.o)
 .debug_info    0x000000000000cae3      0xa23 c:/software/altera/18.1/nios2eds/bin/gnu/h-x86_64-mingw32/bin/../lib/gcc/nios2-elf/5.3.0/../../../../../H-x86_64-mingw32/nios2-elf/lib\libc.a(lib_a-fclose.o)
 .debug_info    0x000000000000d506      0xa93 c:/software/altera/18.1/nios2eds/bin/gnu/h-x86_64-mingw32/bin/../lib/gcc/nios2-elf/5.3.0/../../../../../H-x86_64-mingw32/nios2-elf/lib\libc.a(lib_a-fflush.o)
 .debug_info    0x000000000000df99      0xbf7 c:/software/altera/18.1/nios2eds/bin/gnu/h-x86_64-mingw32/bin/../lib/gcc/nios2-elf/5.3.0/../../../../../H-x86_64-mingw32/nios2-elf/lib\libc.a(lib_a-freer.o)
 .debug_info    0x000000000000eb90       0x8a c:/software/altera/18.1/nios2eds/bin/gnu/h-x86_64-mingw32/bin/../lib/gcc/nios2-elf/5.3.0/../../../../../H-x86_64-mingw32/nios2-elf/lib\libc.a(lib_a-int_errno.o)
 .debug_info    0x000000000000ec1a      0x90b c:/software/altera/18.1/nios2eds/bin/gnu/h-x86_64-mingw32/bin/../lib/gcc/nios2-elf/5.3.0/../../../../../H-x86_64-mingw32/nios2-elf/lib\libc.a(lib_a-lseekr.o)
 .debug_info    0x000000000000f525      0xad8 c:/software/altera/18.1/nios2eds/bin/gnu/h-x86_64-mingw32/bin/../lib/gcc/nios2-elf/5.3.0/../../../../../H-x86_64-mingw32/nios2-elf/lib\libc.a(lib_a-makebuf.o)
 .debug_info    0x000000000000fffd      0x921 c:/software/altera/18.1/nios2eds/bin/gnu/h-x86_64-mingw32/bin/../lib/gcc/nios2-elf/5.3.0/../../../../../H-x86_64-mingw32/nios2-elf/lib\libc.a(lib_a-readr.o)
 .debug_info    0x000000000001091e      0xa5d c:/software/altera/18.1/nios2eds/bin/gnu/h-x86_64-mingw32/bin/../lib/gcc/nios2-elf/5.3.0/../../../../../H-x86_64-mingw32/nios2-elf/lib\libc.a(lib_a-fstatr.o)
 .debug_info    0x000000000001137b      0x8df c:/software/altera/18.1/nios2eds/bin/gnu/h-x86_64-mingw32/bin/../lib/gcc/nios2-elf/5.3.0/../../../../../H-x86_64-mingw32/nios2-elf/lib\libc.a(lib_a-isattyr.o)
 .debug_info    0x0000000000011c5a      0x321 ../Lab2_LOOP_AUDIO_bsp/\libhal_bsp.a(alt_close.o)
 .debug_info    0x0000000000011f7b      0x49c ../Lab2_LOOP_AUDIO_bsp/\libhal_bsp.a(alt_dev.o)
 .debug_info    0x0000000000012417       0xa6 ../Lab2_LOOP_AUDIO_bsp/\libhal_bsp.a(alt_errno.o)
 .debug_info    0x00000000000124bd      0x488 ../Lab2_LOOP_AUDIO_bsp/\libhal_bsp.a(alt_fstat.o)
 .debug_info    0x0000000000012945      0x48b ../Lab2_LOOP_AUDIO_bsp/\libhal_bsp.a(alt_isatty.o)
 .debug_info    0x0000000000012dd0      0x145 ../Lab2_LOOP_AUDIO_bsp/\libhal_bsp.a(alt_load.o)
 .debug_info    0x0000000000012f15      0x352 ../Lab2_LOOP_AUDIO_bsp/\libhal_bsp.a(alt_lseek.o)
 .debug_info    0x0000000000013267      0x157 ../Lab2_LOOP_AUDIO_bsp/\libhal_bsp.a(alt_main.o)
 .debug_info    0x00000000000133be      0x8b6 ../Lab2_LOOP_AUDIO_bsp/\libhal_bsp.a(alt_malloc_lock.o)
 .debug_info    0x0000000000013c74      0x119 ../Lab2_LOOP_AUDIO_bsp/\libhal_bsp.a(alt_printf.o)
 .debug_info    0x0000000000013d8d      0x8a6 ../Lab2_LOOP_AUDIO_bsp/\libhal_bsp.a(alt_putchar.o)
 .debug_info    0x0000000000014633      0x4b0 ../Lab2_LOOP_AUDIO_bsp/\libhal_bsp.a(alt_read.o)
 .debug_info    0x0000000000014ae3      0x2b0 ../Lab2_LOOP_AUDIO_bsp/\libhal_bsp.a(alt_release_fd.o)
 .debug_info    0x0000000000014d93      0x1d2 ../Lab2_LOOP_AUDIO_bsp/\libhal_bsp.a(alt_sbrk.o)
 .debug_info    0x0000000000014f65      0x4b7 ../Lab2_LOOP_AUDIO_bsp/\libhal_bsp.a(alt_write.o)
 .debug_info    0x000000000001541c      0x78a ../Lab2_LOOP_AUDIO_bsp/\libhal_bsp.a(alt_sys_init.o)
 .debug_info    0x0000000000015ba6      0x3a7 ../Lab2_LOOP_AUDIO_bsp/\libhal_bsp.a(altera_avalon_jtag_uart_fd.o)
 .debug_info    0x0000000000015f4d      0x1c8 ../Lab2_LOOP_AUDIO_bsp/\libhal_bsp.a(altera_avalon_jtag_uart_read.o)
 .debug_info    0x0000000000016115      0x1ab ../Lab2_LOOP_AUDIO_bsp/\libhal_bsp.a(altera_avalon_jtag_uart_write.o)
 .debug_info    0x00000000000162c0      0x6d1 ../Lab2_LOOP_AUDIO_bsp/\libhal_bsp.a(altera_avalon_lcd_16207.o)
 .debug_info    0x0000000000016991      0x4cc ../Lab2_LOOP_AUDIO_bsp/\libhal_bsp.a(altera_avalon_lcd_16207_fd.o)
 .debug_info    0x0000000000016e5d      0x249 ../Lab2_LOOP_AUDIO_bsp/\libhal_bsp.a(altera_avalon_timer_sc.o)
 .debug_info    0x00000000000170a6      0x447 ../Lab2_LOOP_AUDIO_bsp/\libhal_bsp.a(altera_avalon_uart_fd.o)
 .debug_info    0x00000000000174ed      0x356 ../Lab2_LOOP_AUDIO_bsp/\libhal_bsp.a(altera_avalon_uart_init.o)
 .debug_info    0x0000000000017843      0x32f ../Lab2_LOOP_AUDIO_bsp/\libhal_bsp.a(altera_avalon_uart_read.o)
 .debug_info    0x0000000000017b72      0x334 ../Lab2_LOOP_AUDIO_bsp/\libhal_bsp.a(altera_avalon_uart_write.o)
 .debug_info    0x0000000000017ea6      0x796 ../Lab2_LOOP_AUDIO_bsp/\libhal_bsp.a(altera_up_avalon_audio.o)
 .debug_info    0x000000000001863c      0x2e2 ../Lab2_LOOP_AUDIO_bsp/\libhal_bsp.a(alt_alarm_start.o)
 .debug_info    0x000000000001891e       0xa5 ../Lab2_LOOP_AUDIO_bsp/\libhal_bsp.a(alt_dcache_flush_all.o)
 .debug_info    0x00000000000189c3      0x1a9 ../Lab2_LOOP_AUDIO_bsp/\libhal_bsp.a(alt_dev_llist_insert.o)
 .debug_info    0x0000000000018b6c       0x83 ../Lab2_LOOP_AUDIO_bsp/\libhal_bsp.a(alt_do_ctors.o)
 .debug_info    0x0000000000018bef       0x83 ../Lab2_LOOP_AUDIO_bsp/\libhal_bsp.a(alt_do_dtors.o)
 .debug_info    0x0000000000018c72      0x2e9 ../Lab2_LOOP_AUDIO_bsp/\libhal_bsp.a(alt_find_dev.o)
 .debug_info    0x0000000000018f5b       0x92 ../Lab2_LOOP_AUDIO_bsp/\libhal_bsp.a(alt_icache_flush_all.o)
 .debug_info    0x0000000000018fed      0x4a5 ../Lab2_LOOP_AUDIO_bsp/\libhal_bsp.a(alt_io_redirect.o)
 .debug_info    0x0000000000019492      0x329 ../Lab2_LOOP_AUDIO_bsp/\libhal_bsp.a(alt_irq_register.o)
 .debug_info    0x00000000000197bb       0x88 ../Lab2_LOOP_AUDIO_bsp/\libhal_bsp.a(alt_irq_vars.o)
 .debug_info    0x0000000000019843      0x3bb ../Lab2_LOOP_AUDIO_bsp/\libhal_bsp.a(alt_open.o)
 .debug_info    0x0000000000019bfe      0x2af ../Lab2_LOOP_AUDIO_bsp/\libhal_bsp.a(alt_tick.o)
 .debug_info    0x0000000000019ead       0xb0 ../Lab2_LOOP_AUDIO_bsp/\libhal_bsp.a(alt_usleep.o)
 .debug_info    0x0000000000019f5d       0xb8 ../Lab2_LOOP_AUDIO_bsp/\libhal_bsp.a(altera_nios2_gen2_irq.o)
 .debug_info    0x000000000001a015       0xd7 ../Lab2_LOOP_AUDIO_bsp/\libhal_bsp.a(alt_busy_sleep.o)
 .debug_info    0x000000000001a0ec      0x2e6 ../Lab2_LOOP_AUDIO_bsp/\libhal_bsp.a(alt_find_file.o)
 .debug_info    0x000000000001a3d2      0x310 ../Lab2_LOOP_AUDIO_bsp/\libhal_bsp.a(alt_get_fd.o)
 .debug_info    0x000000000001a6e2       0xdc ../Lab2_LOOP_AUDIO_bsp/\libhal_bsp.a(alt_icache_flush.o)
 .debug_info    0x000000000001a7be       0x7f ../Lab2_LOOP_AUDIO_bsp/\libhal_bsp.a(alt_irq_entry.o)
 .debug_info    0x000000000001a83d      0x1a7 ../Lab2_LOOP_AUDIO_bsp/\libhal_bsp.a(alt_irq_handler.o)
 .debug_info    0x000000000001a9e4       0x85 ../Lab2_LOOP_AUDIO_bsp/\libhal_bsp.a(alt_exception_entry.o)
 .debug_info    0x000000000001aa69      0x1e7 ../Lab2_LOOP_AUDIO_bsp/\libhal_bsp.a(alt_instruction_exception_entry.o)
 .debug_info    0x000000000001ac50       0xfe c:/software/altera/18.1/nios2eds/bin/gnu/h-x86_64-mingw32/bin/../lib/gcc/nios2-elf/5.3.0/../../../../../H-x86_64-mingw32/nios2-elf/lib\libc.a(lib_a-atexit.o)
 .debug_info    0x000000000001ad4e       0x96 c:/software/altera/18.1/nios2eds/bin/gnu/h-x86_64-mingw32/bin/../lib/gcc/nios2-elf/5.3.0/../../../../../H-x86_64-mingw32/nios2-elf/lib\libc.a(lib_a-ctype_.o)
 .debug_info    0x000000000001ade4      0x8e4 c:/software/altera/18.1/nios2eds/bin/gnu/h-x86_64-mingw32/bin/../lib/gcc/nios2-elf/5.3.0/../../../../../H-x86_64-mingw32/nios2-elf/lib\libc.a(lib_a-exit.o)
 .debug_info    0x000000000001b6c8      0x11a c:/software/altera/18.1/nios2eds/bin/gnu/h-x86_64-mingw32/bin/../lib/gcc/nios2-elf/5.3.0/../../../../../H-x86_64-mingw32/nios2-elf/lib\libc.a(lib_a-memcmp.o)
 .debug_info    0x000000000001b7e2      0x144 c:/software/altera/18.1/nios2eds/bin/gnu/h-x86_64-mingw32/bin/../lib/gcc/nios2-elf/5.3.0/../../../../../H-x86_64-mingw32/nios2-elf/lib\libc.a(lib_a-memcpy.o)
 .debug_info    0x000000000001b926       0xe2 c:/software/altera/18.1/nios2eds/bin/gnu/h-x86_64-mingw32/bin/../lib/gcc/nios2-elf/5.3.0/../../../../../H-x86_64-mingw32/nios2-elf/lib\libc.a(lib_a-strlen.o)
 .debug_info    0x000000000001ba08      0x934 c:/software/altera/18.1/nios2eds/bin/gnu/h-x86_64-mingw32/bin/../lib/gcc/nios2-elf/5.3.0/../../../../../H-x86_64-mingw32/nios2-elf/lib\libc.a(lib_a-__atexit.o)
 .debug_info    0x000000000001c33c      0x965 c:/software/altera/18.1/nios2eds/bin/gnu/h-x86_64-mingw32/bin/../lib/gcc/nios2-elf/5.3.0/../../../../../H-x86_64-mingw32/nios2-elf/lib\libc.a(lib_a-__call_atexit.o)
 .debug_info    0x000000000001cca1      0x116 ../Lab2_LOOP_AUDIO_bsp/\libhal_bsp.a(alt_exit.o)

.debug_abbrev   0x0000000000000000     0x75df
 *(.debug_abbrev)
 .debug_abbrev  0x0000000000000000       0x12 ../Lab2_LOOP_AUDIO_bsp//obj/HAL/src/crt0.o
 .debug_abbrev  0x0000000000000012       0x60 obj/default/fatfs.o
 .debug_abbrev  0x0000000000000072      0x1f5 obj/default/fatfs_diskio.o
 .debug_abbrev  0x0000000000000267      0x1af obj/default/ff.o
 .debug_abbrev  0x0000000000000416       0xfc obj/default/hello_world.o
 .debug_abbrev  0x0000000000000512       0xf1 obj/default/monitor.o
 .debug_abbrev  0x0000000000000603      0x219 obj/default/uart_nios2.o
 .debug_abbrev  0x000000000000081c      0x10e c:/software/altera/18.1/nios2eds/bin/gnu/h-x86_64-mingw32/bin/../lib/gcc/nios2-elf/5.3.0\libgcc.a(lib2-divmod.o)
 .debug_abbrev  0x000000000000092a      0x235 c:/software/altera/18.1/nios2eds/bin/gnu/h-x86_64-mingw32/bin/../lib/gcc/nios2-elf/5.3.0/../../../../../H-x86_64-mingw32/nios2-elf/lib\libc.a(lib_a-getc.o)
 .debug_abbrev  0x0000000000000b5f      0x18f c:/software/altera/18.1/nios2eds/bin/gnu/h-x86_64-mingw32/bin/../lib/gcc/nios2-elf/5.3.0/../../../../../H-x86_64-mingw32/nios2-elf/lib\libc.a(lib_a-impure.o)
 .debug_abbrev  0x0000000000000cee      0x205 c:/software/altera/18.1/nios2eds/bin/gnu/h-x86_64-mingw32/bin/../lib/gcc/nios2-elf/5.3.0/../../../../../H-x86_64-mingw32/nios2-elf/lib\libc.a(lib_a-putchar.o)
 .debug_abbrev  0x0000000000000ef3      0x224 c:/software/altera/18.1/nios2eds/bin/gnu/h-x86_64-mingw32/bin/../lib/gcc/nios2-elf/5.3.0/../../../../../H-x86_64-mingw32/nios2-elf/lib\libc.a(lib_a-rget.o)
 .debug_abbrev  0x0000000000001117      0x391 c:/software/altera/18.1/nios2eds/bin/gnu/h-x86_64-mingw32/bin/../lib/gcc/nios2-elf/5.3.0/../../../../../H-x86_64-mingw32/nios2-elf/lib\libc.a(lib_a-findfp.o)
 .debug_abbrev  0x00000000000014a8      0x1d1 c:/software/altera/18.1/nios2eds/bin/gnu/h-x86_64-mingw32/bin/../lib/gcc/nios2-elf/5.3.0/../../../../../H-x86_64-mingw32/nios2-elf/lib\libc.a(lib_a-fwalk.o)
 .debug_abbrev  0x0000000000001679      0x29d c:/software/altera/18.1/nios2eds/bin/gnu/h-x86_64-mingw32/bin/../lib/gcc/nios2-elf/5.3.0/../../../../../H-x86_64-mingw32/nios2-elf/lib\libc.a(lib_a-mallocr.o)
 .debug_abbrev  0x0000000000001916       0xae c:/software/altera/18.1/nios2eds/bin/gnu/h-x86_64-mingw32/bin/../lib/gcc/nios2-elf/5.3.0/../../../../../H-x86_64-mingw32/nios2-elf/lib\libc.a(lib_a-memset.o)
 .debug_abbrev  0x00000000000019c4      0x243 c:/software/altera/18.1/nios2eds/bin/gnu/h-x86_64-mingw32/bin/../lib/gcc/nios2-elf/5.3.0/../../../../../H-x86_64-mingw32/nios2-elf/lib\libc.a(lib_a-putc.o)
 .debug_abbrev  0x0000000000001c07      0x256 c:/software/altera/18.1/nios2eds/bin/gnu/h-x86_64-mingw32/bin/../lib/gcc/nios2-elf/5.3.0/../../../../../H-x86_64-mingw32/nios2-elf/lib\libc.a(lib_a-refill.o)
 .debug_abbrev  0x0000000000001e5d      0x20a c:/software/altera/18.1/nios2eds/bin/gnu/h-x86_64-mingw32/bin/../lib/gcc/nios2-elf/5.3.0/../../../../../H-x86_64-mingw32/nios2-elf/lib\libc.a(lib_a-sbrkr.o)
 .debug_abbrev  0x0000000000002067      0x239 c:/software/altera/18.1/nios2eds/bin/gnu/h-x86_64-mingw32/bin/../lib/gcc/nios2-elf/5.3.0/../../../../../H-x86_64-mingw32/nios2-elf/lib\libc.a(lib_a-stdio.o)
 .debug_abbrev  0x00000000000022a0      0x251 c:/software/altera/18.1/nios2eds/bin/gnu/h-x86_64-mingw32/bin/../lib/gcc/nios2-elf/5.3.0/../../../../../H-x86_64-mingw32/nios2-elf/lib\libc.a(lib_a-wbuf.o)
 .debug_abbrev  0x00000000000024f1      0x1eb c:/software/altera/18.1/nios2eds/bin/gnu/h-x86_64-mingw32/bin/../lib/gcc/nios2-elf/5.3.0/../../../../../H-x86_64-mingw32/nios2-elf/lib\libc.a(lib_a-writer.o)
 .debug_abbrev  0x00000000000026dc      0x218 c:/software/altera/18.1/nios2eds/bin/gnu/h-x86_64-mingw32/bin/../lib/gcc/nios2-elf/5.3.0/../../../../../H-x86_64-mingw32/nios2-elf/lib\libc.a(lib_a-wsetup.o)
 .debug_abbrev  0x00000000000028f4      0x1e6 c:/software/altera/18.1/nios2eds/bin/gnu/h-x86_64-mingw32/bin/../lib/gcc/nios2-elf/5.3.0/../../../../../H-x86_64-mingw32/nios2-elf/lib\libc.a(closer.o)
 .debug_abbrev  0x0000000000002ada      0x2a2 c:/software/altera/18.1/nios2eds/bin/gnu/h-x86_64-mingw32/bin/../lib/gcc/nios2-elf/5.3.0/../../../../../H-x86_64-mingw32/nios2-elf/lib\libc.a(lib_a-fclose.o)
 .debug_abbrev  0x0000000000002d7c      0x2a0 c:/software/altera/18.1/nios2eds/bin/gnu/h-x86_64-mingw32/bin/../lib/gcc/nios2-elf/5.3.0/../../../../../H-x86_64-mingw32/nios2-elf/lib\libc.a(lib_a-fflush.o)
 .debug_abbrev  0x000000000000301c      0x264 c:/software/altera/18.1/nios2eds/bin/gnu/h-x86_64-mingw32/bin/../lib/gcc/nios2-elf/5.3.0/../../../../../H-x86_64-mingw32/nios2-elf/lib\libc.a(lib_a-freer.o)
 .debug_abbrev  0x0000000000003280       0x37 c:/software/altera/18.1/nios2eds/bin/gnu/h-x86_64-mingw32/bin/../lib/gcc/nios2-elf/5.3.0/../../../../../H-x86_64-mingw32/nios2-elf/lib\libc.a(lib_a-int_errno.o)
 .debug_abbrev  0x00000000000032b7      0x1f5 c:/software/altera/18.1/nios2eds/bin/gnu/h-x86_64-mingw32/bin/../lib/gcc/nios2-elf/5.3.0/../../../../../H-x86_64-mingw32/nios2-elf/lib\libc.a(lib_a-lseekr.o)
 .debug_abbrev  0x00000000000034ac      0x20f c:/software/altera/18.1/nios2eds/bin/gnu/h-x86_64-mingw32/bin/../lib/gcc/nios2-elf/5.3.0/../../../../../H-x86_64-mingw32/nios2-elf/lib\libc.a(lib_a-makebuf.o)
 .debug_abbrev  0x00000000000036bb      0x1e6 c:/software/altera/18.1/nios2eds/bin/gnu/h-x86_64-mingw32/bin/../lib/gcc/nios2-elf/5.3.0/../../../../../H-x86_64-mingw32/nios2-elf/lib\libc.a(lib_a-readr.o)
 .debug_abbrev  0x00000000000038a1      0x1f5 c:/software/altera/18.1/nios2eds/bin/gnu/h-x86_64-mingw32/bin/../lib/gcc/nios2-elf/5.3.0/../../../../../H-x86_64-mingw32/nios2-elf/lib\libc.a(lib_a-fstatr.o)
 .debug_abbrev  0x0000000000003a96      0x1e6 c:/software/altera/18.1/nios2eds/bin/gnu/h-x86_64-mingw32/bin/../lib/gcc/nios2-elf/5.3.0/../../../../../H-x86_64-mingw32/nios2-elf/lib\libc.a(lib_a-isattyr.o)
 .debug_abbrev  0x0000000000003c7c      0x11f ../Lab2_LOOP_AUDIO_bsp/\libhal_bsp.a(alt_close.o)
 .debug_abbrev  0x0000000000003d9b       0xd9 ../Lab2_LOOP_AUDIO_bsp/\libhal_bsp.a(alt_dev.o)
 .debug_abbrev  0x0000000000003e74       0x5a ../Lab2_LOOP_AUDIO_bsp/\libhal_bsp.a(alt_errno.o)
 .debug_abbrev  0x0000000000003ece      0x11f ../Lab2_LOOP_AUDIO_bsp/\libhal_bsp.a(alt_fstat.o)
 .debug_abbrev  0x0000000000003fed      0x11f ../Lab2_LOOP_AUDIO_bsp/\libhal_bsp.a(alt_isatty.o)
 .debug_abbrev  0x000000000000410c       0x9f ../Lab2_LOOP_AUDIO_bsp/\libhal_bsp.a(alt_load.o)
 .debug_abbrev  0x00000000000041ab      0x11f ../Lab2_LOOP_AUDIO_bsp/\libhal_bsp.a(alt_lseek.o)
 .debug_abbrev  0x00000000000042ca       0xc1 ../Lab2_LOOP_AUDIO_bsp/\libhal_bsp.a(alt_main.o)
 .debug_abbrev  0x000000000000438b      0x1b4 ../Lab2_LOOP_AUDIO_bsp/\libhal_bsp.a(alt_malloc_lock.o)
 .debug_abbrev  0x000000000000453f       0xb0 ../Lab2_LOOP_AUDIO_bsp/\libhal_bsp.a(alt_printf.o)
 .debug_abbrev  0x00000000000045ef      0x1af ../Lab2_LOOP_AUDIO_bsp/\libhal_bsp.a(alt_putchar.o)
 .debug_abbrev  0x000000000000479e      0x12e ../Lab2_LOOP_AUDIO_bsp/\libhal_bsp.a(alt_read.o)
 .debug_abbrev  0x00000000000048cc       0xde ../Lab2_LOOP_AUDIO_bsp/\libhal_bsp.a(alt_release_fd.o)
 .debug_abbrev  0x00000000000049aa      0x119 ../Lab2_LOOP_AUDIO_bsp/\libhal_bsp.a(alt_sbrk.o)
 .debug_abbrev  0x0000000000004ac3      0x133 ../Lab2_LOOP_AUDIO_bsp/\libhal_bsp.a(alt_write.o)
 .debug_abbrev  0x0000000000004bf6      0x190 ../Lab2_LOOP_AUDIO_bsp/\libhal_bsp.a(alt_sys_init.o)
 .debug_abbrev  0x0000000000004d86       0xf7 ../Lab2_LOOP_AUDIO_bsp/\libhal_bsp.a(altera_avalon_jtag_uart_fd.o)
 .debug_abbrev  0x0000000000004e7d       0xd5 ../Lab2_LOOP_AUDIO_bsp/\libhal_bsp.a(altera_avalon_jtag_uart_read.o)
 .debug_abbrev  0x0000000000004f52       0xd5 ../Lab2_LOOP_AUDIO_bsp/\libhal_bsp.a(altera_avalon_jtag_uart_write.o)
 .debug_abbrev  0x0000000000005027      0x20f ../Lab2_LOOP_AUDIO_bsp/\libhal_bsp.a(altera_avalon_lcd_16207.o)
 .debug_abbrev  0x0000000000005236      0x125 ../Lab2_LOOP_AUDIO_bsp/\libhal_bsp.a(altera_avalon_lcd_16207_fd.o)
 .debug_abbrev  0x000000000000535b      0x155 ../Lab2_LOOP_AUDIO_bsp/\libhal_bsp.a(altera_avalon_timer_sc.o)
 .debug_abbrev  0x00000000000054b0      0x109 ../Lab2_LOOP_AUDIO_bsp/\libhal_bsp.a(altera_avalon_uart_fd.o)
 .debug_abbrev  0x00000000000055b9      0x178 ../Lab2_LOOP_AUDIO_bsp/\libhal_bsp.a(altera_avalon_uart_init.o)
 .debug_abbrev  0x0000000000005731      0x183 ../Lab2_LOOP_AUDIO_bsp/\libhal_bsp.a(altera_avalon_uart_read.o)
 .debug_abbrev  0x00000000000058b4      0x18a ../Lab2_LOOP_AUDIO_bsp/\libhal_bsp.a(altera_avalon_uart_write.o)
 .debug_abbrev  0x0000000000005a3e      0x15e ../Lab2_LOOP_AUDIO_bsp/\libhal_bsp.a(altera_up_avalon_audio.o)
 .debug_abbrev  0x0000000000005b9c      0x162 ../Lab2_LOOP_AUDIO_bsp/\libhal_bsp.a(alt_alarm_start.o)
 .debug_abbrev  0x0000000000005cfe       0x5a ../Lab2_LOOP_AUDIO_bsp/\libhal_bsp.a(alt_dcache_flush_all.o)
 .debug_abbrev  0x0000000000005d58      0x114 ../Lab2_LOOP_AUDIO_bsp/\libhal_bsp.a(alt_dev_llist_insert.o)
 .debug_abbrev  0x0000000000005e6c       0x79 ../Lab2_LOOP_AUDIO_bsp/\libhal_bsp.a(alt_do_ctors.o)
 .debug_abbrev  0x0000000000005ee5       0x79 ../Lab2_LOOP_AUDIO_bsp/\libhal_bsp.a(alt_do_dtors.o)
 .debug_abbrev  0x0000000000005f5e       0xf0 ../Lab2_LOOP_AUDIO_bsp/\libhal_bsp.a(alt_find_dev.o)
 .debug_abbrev  0x000000000000604e       0x42 ../Lab2_LOOP_AUDIO_bsp/\libhal_bsp.a(alt_icache_flush_all.o)
 .debug_abbrev  0x0000000000006090      0x114 ../Lab2_LOOP_AUDIO_bsp/\libhal_bsp.a(alt_io_redirect.o)
 .debug_abbrev  0x00000000000061a4      0x186 ../Lab2_LOOP_AUDIO_bsp/\libhal_bsp.a(alt_irq_register.o)
 .debug_abbrev  0x000000000000632a       0x40 ../Lab2_LOOP_AUDIO_bsp/\libhal_bsp.a(alt_irq_vars.o)
 .debug_abbrev  0x000000000000636a      0x148 ../Lab2_LOOP_AUDIO_bsp/\libhal_bsp.a(alt_open.o)
 .debug_abbrev  0x00000000000064b2      0x16b ../Lab2_LOOP_AUDIO_bsp/\libhal_bsp.a(alt_tick.o)
 .debug_abbrev  0x000000000000661d       0x60 ../Lab2_LOOP_AUDIO_bsp/\libhal_bsp.a(alt_usleep.o)
 .debug_abbrev  0x000000000000667d       0x67 ../Lab2_LOOP_AUDIO_bsp/\libhal_bsp.a(altera_nios2_gen2_irq.o)
 .debug_abbrev  0x00000000000066e4       0x7e ../Lab2_LOOP_AUDIO_bsp/\libhal_bsp.a(alt_busy_sleep.o)
 .debug_abbrev  0x0000000000006762       0xf0 ../Lab2_LOOP_AUDIO_bsp/\libhal_bsp.a(alt_find_file.o)
 .debug_abbrev  0x0000000000006852      0x10d ../Lab2_LOOP_AUDIO_bsp/\libhal_bsp.a(alt_get_fd.o)
 .debug_abbrev  0x000000000000695f       0x8c ../Lab2_LOOP_AUDIO_bsp/\libhal_bsp.a(alt_icache_flush.o)
 .debug_abbrev  0x00000000000069eb       0x12 ../Lab2_LOOP_AUDIO_bsp/\libhal_bsp.a(alt_irq_entry.o)
 .debug_abbrev  0x00000000000069fd      0x13a ../Lab2_LOOP_AUDIO_bsp/\libhal_bsp.a(alt_irq_handler.o)
 .debug_abbrev  0x0000000000006b37       0x12 ../Lab2_LOOP_AUDIO_bsp/\libhal_bsp.a(alt_exception_entry.o)
 .debug_abbrev  0x0000000000006b49       0xdc ../Lab2_LOOP_AUDIO_bsp/\libhal_bsp.a(alt_instruction_exception_entry.o)
 .debug_abbrev  0x0000000000006c25       0xaa c:/software/altera/18.1/nios2eds/bin/gnu/h-x86_64-mingw32/bin/../lib/gcc/nios2-elf/5.3.0/../../../../../H-x86_64-mingw32/nios2-elf/lib\libc.a(lib_a-atexit.o)
 .debug_abbrev  0x0000000000006ccf       0x5d c:/software/altera/18.1/nios2eds/bin/gnu/h-x86_64-mingw32/bin/../lib/gcc/nios2-elf/5.3.0/../../../../../H-x86_64-mingw32/nios2-elf/lib\libc.a(lib_a-ctype_.o)
 .debug_abbrev  0x0000000000006d2c      0x1e5 c:/software/altera/18.1/nios2eds/bin/gnu/h-x86_64-mingw32/bin/../lib/gcc/nios2-elf/5.3.0/../../../../../H-x86_64-mingw32/nios2-elf/lib\libc.a(lib_a-exit.o)
 .debug_abbrev  0x0000000000006f11       0x7f c:/software/altera/18.1/nios2eds/bin/gnu/h-x86_64-mingw32/bin/../lib/gcc/nios2-elf/5.3.0/../../../../../H-x86_64-mingw32/nios2-elf/lib\libc.a(lib_a-memcmp.o)
 .debug_abbrev  0x0000000000006f90       0xa3 c:/software/altera/18.1/nios2eds/bin/gnu/h-x86_64-mingw32/bin/../lib/gcc/nios2-elf/5.3.0/../../../../../H-x86_64-mingw32/nios2-elf/lib\libc.a(lib_a-memcpy.o)
 .debug_abbrev  0x0000000000007033       0x90 c:/software/altera/18.1/nios2eds/bin/gnu/h-x86_64-mingw32/bin/../lib/gcc/nios2-elf/5.3.0/../../../../../H-x86_64-mingw32/nios2-elf/lib\libc.a(lib_a-strlen.o)
 .debug_abbrev  0x00000000000070c3      0x21e c:/software/altera/18.1/nios2eds/bin/gnu/h-x86_64-mingw32/bin/../lib/gcc/nios2-elf/5.3.0/../../../../../H-x86_64-mingw32/nios2-elf/lib\libc.a(lib_a-__atexit.o)
 .debug_abbrev  0x00000000000072e1      0x22e c:/software/altera/18.1/nios2eds/bin/gnu/h-x86_64-mingw32/bin/../lib/gcc/nios2-elf/5.3.0/../../../../../H-x86_64-mingw32/nios2-elf/lib\libc.a(lib_a-__call_atexit.o)
 .debug_abbrev  0x000000000000750f       0xd0 ../Lab2_LOOP_AUDIO_bsp/\libhal_bsp.a(alt_exit.o)

.debug_line     0x0000000000000000     0x92e6
 *(.debug_line)
 .debug_line    0x0000000000000000       0x72 ../Lab2_LOOP_AUDIO_bsp//obj/HAL/src/crt0.o
 .debug_line    0x0000000000000072       0x4c obj/default/fatfs.o
 .debug_line    0x00000000000000be      0x442 obj/default/fatfs_diskio.o
 .debug_line    0x0000000000000500        0x0 obj/default/fatfs_nios2_de0_nano_spi.o
 .debug_line    0x0000000000000500        0x0 obj/default/fatfs_nios2_de1_pio.o
 .debug_line    0x0000000000000500        0x0 obj/default/fatfs_nios2_de1_spi.o
 .debug_line    0x0000000000000500     0x1079 obj/default/ff.o
 .debug_line    0x0000000000001579       0xf9 obj/default/hello_world.o
 .debug_line    0x0000000000001672      0x227 obj/default/monitor.o
 .debug_line    0x0000000000001899      0x1da obj/default/uart_nios2.o
 .debug_line    0x0000000000001a73      0x102 c:/software/altera/18.1/nios2eds/bin/gnu/h-x86_64-mingw32/bin/../lib/gcc/nios2-elf/5.3.0\libgcc.a(lib2-divmod.o)
 .debug_line    0x0000000000001b75      0x24d c:/software/altera/18.1/nios2eds/bin/gnu/h-x86_64-mingw32/bin/../lib/gcc/nios2-elf/5.3.0/../../../../../H-x86_64-mingw32/nios2-elf/lib\libc.a(lib_a-getc.o)
 .debug_line    0x0000000000001dc2      0x15d c:/software/altera/18.1/nios2eds/bin/gnu/h-x86_64-mingw32/bin/../lib/gcc/nios2-elf/5.3.0/../../../../../H-x86_64-mingw32/nios2-elf/lib\libc.a(lib_a-impure.o)
 .debug_line    0x0000000000001f1f      0x1f2 c:/software/altera/18.1/nios2eds/bin/gnu/h-x86_64-mingw32/bin/../lib/gcc/nios2-elf/5.3.0/../../../../../H-x86_64-mingw32/nios2-elf/lib\libc.a(lib_a-putchar.o)
 .debug_line    0x0000000000002111      0x20b c:/software/altera/18.1/nios2eds/bin/gnu/h-x86_64-mingw32/bin/../lib/gcc/nios2-elf/5.3.0/../../../../../H-x86_64-mingw32/nios2-elf/lib\libc.a(lib_a-rget.o)
 .debug_line    0x000000000000231c      0x36f c:/software/altera/18.1/nios2eds/bin/gnu/h-x86_64-mingw32/bin/../lib/gcc/nios2-elf/5.3.0/../../../../../H-x86_64-mingw32/nios2-elf/lib\libc.a(lib_a-findfp.o)
 .debug_line    0x000000000000268b      0x237 c:/software/altera/18.1/nios2eds/bin/gnu/h-x86_64-mingw32/bin/../lib/gcc/nios2-elf/5.3.0/../../../../../H-x86_64-mingw32/nios2-elf/lib\libc.a(lib_a-fwalk.o)
 .debug_line    0x00000000000028c2      0x3f9 c:/software/altera/18.1/nios2eds/bin/gnu/h-x86_64-mingw32/bin/../lib/gcc/nios2-elf/5.3.0/../../../../../H-x86_64-mingw32/nios2-elf/lib\libc.a(lib_a-mallocr.o)
 .debug_line    0x0000000000002cbb      0x18c c:/software/altera/18.1/nios2eds/bin/gnu/h-x86_64-mingw32/bin/../lib/gcc/nios2-elf/5.3.0/../../../../../H-x86_64-mingw32/nios2-elf/lib\libc.a(lib_a-memset.o)
 .debug_line    0x0000000000002e47      0x272 c:/software/altera/18.1/nios2eds/bin/gnu/h-x86_64-mingw32/bin/../lib/gcc/nios2-elf/5.3.0/../../../../../H-x86_64-mingw32/nios2-elf/lib\libc.a(lib_a-putc.o)
 .debug_line    0x00000000000030b9      0x27c c:/software/altera/18.1/nios2eds/bin/gnu/h-x86_64-mingw32/bin/../lib/gcc/nios2-elf/5.3.0/../../../../../H-x86_64-mingw32/nios2-elf/lib\libc.a(lib_a-refill.o)
 .debug_line    0x0000000000003335      0x1e6 c:/software/altera/18.1/nios2eds/bin/gnu/h-x86_64-mingw32/bin/../lib/gcc/nios2-elf/5.3.0/../../../../../H-x86_64-mingw32/nios2-elf/lib\libc.a(lib_a-sbrkr.o)
 .debug_line    0x000000000000351b      0x267 c:/software/altera/18.1/nios2eds/bin/gnu/h-x86_64-mingw32/bin/../lib/gcc/nios2-elf/5.3.0/../../../../../H-x86_64-mingw32/nios2-elf/lib\libc.a(lib_a-stdio.o)
 .debug_line    0x0000000000003782      0x26e c:/software/altera/18.1/nios2eds/bin/gnu/h-x86_64-mingw32/bin/../lib/gcc/nios2-elf/5.3.0/../../../../../H-x86_64-mingw32/nios2-elf/lib\libc.a(lib_a-wbuf.o)
 .debug_line    0x00000000000039f0      0x1f3 c:/software/altera/18.1/nios2eds/bin/gnu/h-x86_64-mingw32/bin/../lib/gcc/nios2-elf/5.3.0/../../../../../H-x86_64-mingw32/nios2-elf/lib\libc.a(lib_a-writer.o)
 .debug_line    0x0000000000003be3      0x263 c:/software/altera/18.1/nios2eds/bin/gnu/h-x86_64-mingw32/bin/../lib/gcc/nios2-elf/5.3.0/../../../../../H-x86_64-mingw32/nios2-elf/lib\libc.a(lib_a-wsetup.o)
 .debug_line    0x0000000000003e46      0x1f3 c:/software/altera/18.1/nios2eds/bin/gnu/h-x86_64-mingw32/bin/../lib/gcc/nios2-elf/5.3.0/../../../../../H-x86_64-mingw32/nios2-elf/lib\libc.a(closer.o)
 .debug_line    0x0000000000004039      0x236 c:/software/altera/18.1/nios2eds/bin/gnu/h-x86_64-mingw32/bin/../lib/gcc/nios2-elf/5.3.0/../../../../../H-x86_64-mingw32/nios2-elf/lib\libc.a(lib_a-fclose.o)
 .debug_line    0x000000000000426f      0x2e7 c:/software/altera/18.1/nios2eds/bin/gnu/h-x86_64-mingw32/bin/../lib/gcc/nios2-elf/5.3.0/../../../../../H-x86_64-mingw32/nios2-elf/lib\libc.a(lib_a-fflush.o)
 .debug_line    0x0000000000004556      0x2f4 c:/software/altera/18.1/nios2eds/bin/gnu/h-x86_64-mingw32/bin/../lib/gcc/nios2-elf/5.3.0/../../../../../H-x86_64-mingw32/nios2-elf/lib\libc.a(lib_a-freer.o)
 .debug_line    0x000000000000484a       0x5c c:/software/altera/18.1/nios2eds/bin/gnu/h-x86_64-mingw32/bin/../lib/gcc/nios2-elf/5.3.0/../../../../../H-x86_64-mingw32/nios2-elf/lib\libc.a(lib_a-int_errno.o)
 .debug_line    0x00000000000048a6      0x1f3 c:/software/altera/18.1/nios2eds/bin/gnu/h-x86_64-mingw32/bin/../lib/gcc/nios2-elf/5.3.0/../../../../../H-x86_64-mingw32/nios2-elf/lib\libc.a(lib_a-lseekr.o)
 .debug_line    0x0000000000004a99      0x271 c:/software/altera/18.1/nios2eds/bin/gnu/h-x86_64-mingw32/bin/../lib/gcc/nios2-elf/5.3.0/../../../../../H-x86_64-mingw32/nios2-elf/lib\libc.a(lib_a-makebuf.o)
 .debug_line    0x0000000000004d0a      0x1f2 c:/software/altera/18.1/nios2eds/bin/gnu/h-x86_64-mingw32/bin/../lib/gcc/nios2-elf/5.3.0/../../../../../H-x86_64-mingw32/nios2-elf/lib\libc.a(lib_a-readr.o)
 .debug_line    0x0000000000004efc      0x1fc c:/software/altera/18.1/nios2eds/bin/gnu/h-x86_64-mingw32/bin/../lib/gcc/nios2-elf/5.3.0/../../../../../H-x86_64-mingw32/nios2-elf/lib\libc.a(lib_a-fstatr.o)
 .debug_line    0x00000000000050f8      0x1f4 c:/software/altera/18.1/nios2eds/bin/gnu/h-x86_64-mingw32/bin/../lib/gcc/nios2-elf/5.3.0/../../../../../H-x86_64-mingw32/nios2-elf/lib\libc.a(lib_a-isattyr.o)
 .debug_line    0x00000000000052ec      0x166 ../Lab2_LOOP_AUDIO_bsp/\libhal_bsp.a(alt_close.o)
 .debug_line    0x0000000000005452       0xf9 ../Lab2_LOOP_AUDIO_bsp/\libhal_bsp.a(alt_dev.o)
 .debug_line    0x000000000000554b       0x51 ../Lab2_LOOP_AUDIO_bsp/\libhal_bsp.a(alt_errno.o)
 .debug_line    0x000000000000559c      0x15f ../Lab2_LOOP_AUDIO_bsp/\libhal_bsp.a(alt_fstat.o)
 .debug_line    0x00000000000056fb      0x163 ../Lab2_LOOP_AUDIO_bsp/\libhal_bsp.a(alt_isatty.o)
 .debug_line    0x000000000000585e       0x8e ../Lab2_LOOP_AUDIO_bsp/\libhal_bsp.a(alt_load.o)
 .debug_line    0x00000000000058ec      0x164 ../Lab2_LOOP_AUDIO_bsp/\libhal_bsp.a(alt_lseek.o)
 .debug_line    0x0000000000005a50       0xd1 ../Lab2_LOOP_AUDIO_bsp/\libhal_bsp.a(alt_main.o)
 .debug_line    0x0000000000005b21      0x124 ../Lab2_LOOP_AUDIO_bsp/\libhal_bsp.a(alt_malloc_lock.o)
 .debug_line    0x0000000000005c45       0xf0 ../Lab2_LOOP_AUDIO_bsp/\libhal_bsp.a(alt_printf.o)
 .debug_line    0x0000000000005d35      0x122 ../Lab2_LOOP_AUDIO_bsp/\libhal_bsp.a(alt_putchar.o)
 .debug_line    0x0000000000005e57      0x1de ../Lab2_LOOP_AUDIO_bsp/\libhal_bsp.a(alt_read.o)
 .debug_line    0x0000000000006035       0xae ../Lab2_LOOP_AUDIO_bsp/\libhal_bsp.a(alt_release_fd.o)
 .debug_line    0x00000000000060e3      0x130 ../Lab2_LOOP_AUDIO_bsp/\libhal_bsp.a(alt_sbrk.o)
 .debug_line    0x0000000000006213      0x1dd ../Lab2_LOOP_AUDIO_bsp/\libhal_bsp.a(alt_write.o)
 .debug_line    0x00000000000063f0      0x224 ../Lab2_LOOP_AUDIO_bsp/\libhal_bsp.a(alt_sys_init.o)
 .debug_line    0x0000000000006614      0x112 ../Lab2_LOOP_AUDIO_bsp/\libhal_bsp.a(altera_avalon_jtag_uart_fd.o)
 .debug_line    0x0000000000006726      0x111 ../Lab2_LOOP_AUDIO_bsp/\libhal_bsp.a(altera_avalon_jtag_uart_read.o)
 .debug_line    0x0000000000006837      0x108 ../Lab2_LOOP_AUDIO_bsp/\libhal_bsp.a(altera_avalon_jtag_uart_write.o)
 .debug_line    0x000000000000693f      0x344 ../Lab2_LOOP_AUDIO_bsp/\libhal_bsp.a(altera_avalon_lcd_16207.o)
 .debug_line    0x0000000000006c83      0x119 ../Lab2_LOOP_AUDIO_bsp/\libhal_bsp.a(altera_avalon_lcd_16207_fd.o)
 .debug_line    0x0000000000006d9c      0x113 ../Lab2_LOOP_AUDIO_bsp/\libhal_bsp.a(altera_avalon_timer_sc.o)
 .debug_line    0x0000000000006eaf       0xee ../Lab2_LOOP_AUDIO_bsp/\libhal_bsp.a(altera_avalon_uart_fd.o)
 .debug_line    0x0000000000006f9d      0x1a3 ../Lab2_LOOP_AUDIO_bsp/\libhal_bsp.a(altera_avalon_uart_init.o)
 .debug_line    0x0000000000007140      0x192 ../Lab2_LOOP_AUDIO_bsp/\libhal_bsp.a(altera_avalon_uart_read.o)
 .debug_line    0x00000000000072d2      0x179 ../Lab2_LOOP_AUDIO_bsp/\libhal_bsp.a(altera_avalon_uart_write.o)
 .debug_line    0x000000000000744b      0x1e4 ../Lab2_LOOP_AUDIO_bsp/\libhal_bsp.a(altera_up_avalon_audio.o)
 .debug_line    0x000000000000762f      0x10d ../Lab2_LOOP_AUDIO_bsp/\libhal_bsp.a(alt_alarm_start.o)
 .debug_line    0x000000000000773c       0x61 ../Lab2_LOOP_AUDIO_bsp/\libhal_bsp.a(alt_dcache_flush_all.o)
 .debug_line    0x000000000000779d       0xcf ../Lab2_LOOP_AUDIO_bsp/\libhal_bsp.a(alt_dev_llist_insert.o)
 .debug_line    0x000000000000786c       0x59 ../Lab2_LOOP_AUDIO_bsp/\libhal_bsp.a(alt_do_ctors.o)
 .debug_line    0x00000000000078c5       0x59 ../Lab2_LOOP_AUDIO_bsp/\libhal_bsp.a(alt_do_dtors.o)
 .debug_line    0x000000000000791e       0xb5 ../Lab2_LOOP_AUDIO_bsp/\libhal_bsp.a(alt_find_dev.o)
 .debug_line    0x00000000000079d3       0x50 ../Lab2_LOOP_AUDIO_bsp/\libhal_bsp.a(alt_icache_flush_all.o)
 .debug_line    0x0000000000007a23      0x134 ../Lab2_LOOP_AUDIO_bsp/\libhal_bsp.a(alt_io_redirect.o)
 .debug_line    0x0000000000007b57      0x155 ../Lab2_LOOP_AUDIO_bsp/\libhal_bsp.a(alt_irq_register.o)
 .debug_line    0x0000000000007cac       0x50 ../Lab2_LOOP_AUDIO_bsp/\libhal_bsp.a(alt_irq_vars.o)
 .debug_line    0x0000000000007cfc      0x128 ../Lab2_LOOP_AUDIO_bsp/\libhal_bsp.a(alt_open.o)
 .debug_line    0x0000000000007e24      0x113 ../Lab2_LOOP_AUDIO_bsp/\libhal_bsp.a(alt_tick.o)
 .debug_line    0x0000000000007f37       0xae ../Lab2_LOOP_AUDIO_bsp/\libhal_bsp.a(alt_usleep.o)
 .debug_line    0x0000000000007fe5       0x8d ../Lab2_LOOP_AUDIO_bsp/\libhal_bsp.a(altera_nios2_gen2_irq.o)
 .debug_line    0x0000000000008072       0xa0 ../Lab2_LOOP_AUDIO_bsp/\libhal_bsp.a(alt_busy_sleep.o)
 .debug_line    0x0000000000008112       0xd1 ../Lab2_LOOP_AUDIO_bsp/\libhal_bsp.a(alt_find_file.o)
 .debug_line    0x00000000000081e3       0xd4 ../Lab2_LOOP_AUDIO_bsp/\libhal_bsp.a(alt_get_fd.o)
 .debug_line    0x00000000000082b7       0x81 ../Lab2_LOOP_AUDIO_bsp/\libhal_bsp.a(alt_icache_flush.o)
 .debug_line    0x0000000000008338       0x6b ../Lab2_LOOP_AUDIO_bsp/\libhal_bsp.a(alt_irq_entry.o)
 .debug_line    0x00000000000083a3       0xcd ../Lab2_LOOP_AUDIO_bsp/\libhal_bsp.a(alt_irq_handler.o)
 .debug_line    0x0000000000008470       0xb3 ../Lab2_LOOP_AUDIO_bsp/\libhal_bsp.a(alt_exception_entry.o)
 .debug_line    0x0000000000008523       0xba ../Lab2_LOOP_AUDIO_bsp/\libhal_bsp.a(alt_instruction_exception_entry.o)
 .debug_line    0x00000000000085dd       0xe4 c:/software/altera/18.1/nios2eds/bin/gnu/h-x86_64-mingw32/bin/../lib/gcc/nios2-elf/5.3.0/../../../../../H-x86_64-mingw32/nios2-elf/lib\libc.a(lib_a-atexit.o)
 .debug_line    0x00000000000086c1       0xc4 c:/software/altera/18.1/nios2eds/bin/gnu/h-x86_64-mingw32/bin/../lib/gcc/nios2-elf/5.3.0/../../../../../H-x86_64-mingw32/nios2-elf/lib\libc.a(lib_a-ctype_.o)
 .debug_line    0x0000000000008785      0x1f9 c:/software/altera/18.1/nios2eds/bin/gnu/h-x86_64-mingw32/bin/../lib/gcc/nios2-elf/5.3.0/../../../../../H-x86_64-mingw32/nios2-elf/lib\libc.a(lib_a-exit.o)
 .debug_line    0x000000000000897e      0x173 c:/software/altera/18.1/nios2eds/bin/gnu/h-x86_64-mingw32/bin/../lib/gcc/nios2-elf/5.3.0/../../../../../H-x86_64-mingw32/nios2-elf/lib\libc.a(lib_a-memcmp.o)
 .debug_line    0x0000000000008af1      0x189 c:/software/altera/18.1/nios2eds/bin/gnu/h-x86_64-mingw32/bin/../lib/gcc/nios2-elf/5.3.0/../../../../../H-x86_64-mingw32/nios2-elf/lib\libc.a(lib_a-memcpy.o)
 .debug_line    0x0000000000008c7a      0x16c c:/software/altera/18.1/nios2eds/bin/gnu/h-x86_64-mingw32/bin/../lib/gcc/nios2-elf/5.3.0/../../../../../H-x86_64-mingw32/nios2-elf/lib\libc.a(lib_a-strlen.o)
 .debug_line    0x0000000000008de6      0x21c c:/software/altera/18.1/nios2eds/bin/gnu/h-x86_64-mingw32/bin/../lib/gcc/nios2-elf/5.3.0/../../../../../H-x86_64-mingw32/nios2-elf/lib\libc.a(lib_a-__atexit.o)
 .debug_line    0x0000000000009002      0x237 c:/software/altera/18.1/nios2eds/bin/gnu/h-x86_64-mingw32/bin/../lib/gcc/nios2-elf/5.3.0/../../../../../H-x86_64-mingw32/nios2-elf/lib\libc.a(lib_a-__call_atexit.o)
 .debug_line    0x0000000000009239       0xad ../Lab2_LOOP_AUDIO_bsp/\libhal_bsp.a(alt_exit.o)

.debug_frame    0x0000000000000000     0x2790
 *(.debug_frame)
 .debug_frame   0x0000000000000000       0x34 obj/default/fatfs.o
 .debug_frame   0x0000000000000034      0x320 obj/default/fatfs_diskio.o
 .debug_frame   0x0000000000000354      0x70c obj/default/ff.o
 .debug_frame   0x0000000000000a60       0x2c obj/default/hello_world.o
 .debug_frame   0x0000000000000a8c      0x124 obj/default/monitor.o
 .debug_frame   0x0000000000000bb0       0x84 obj/default/uart_nios2.o
 .debug_frame   0x0000000000000c34       0x50 c:/software/altera/18.1/nios2eds/bin/gnu/h-x86_64-mingw32/bin/../lib/gcc/nios2-elf/5.3.0\libgcc.a(lib2-divmod.o)
 .debug_frame   0x0000000000000c84       0x6c c:/software/altera/18.1/nios2eds/bin/gnu/h-x86_64-mingw32/bin/../lib/gcc/nios2-elf/5.3.0/../../../../../H-x86_64-mingw32/nios2-elf/lib\libc.a(lib_a-getc.o)
 .debug_frame   0x0000000000000cf0       0x30 c:/software/altera/18.1/nios2eds/bin/gnu/h-x86_64-mingw32/bin/../lib/gcc/nios2-elf/5.3.0/../../../../../H-x86_64-mingw32/nios2-elf/lib\libc.a(lib_a-putchar.o)
 .debug_frame   0x0000000000000d20       0x48 c:/software/altera/18.1/nios2eds/bin/gnu/h-x86_64-mingw32/bin/../lib/gcc/nios2-elf/5.3.0/../../../../../H-x86_64-mingw32/nios2-elf/lib\libc.a(lib_a-rget.o)
 .debug_frame   0x0000000000000d68      0x160 c:/software/altera/18.1/nios2eds/bin/gnu/h-x86_64-mingw32/bin/../lib/gcc/nios2-elf/5.3.0/../../../../../H-x86_64-mingw32/nios2-elf/lib\libc.a(lib_a-findfp.o)
 .debug_frame   0x0000000000000ec8       0x90 c:/software/altera/18.1/nios2eds/bin/gnu/h-x86_64-mingw32/bin/../lib/gcc/nios2-elf/5.3.0/../../../../../H-x86_64-mingw32/nios2-elf/lib\libc.a(lib_a-fwalk.o)
 .debug_frame   0x0000000000000f58       0x54 c:/software/altera/18.1/nios2eds/bin/gnu/h-x86_64-mingw32/bin/../lib/gcc/nios2-elf/5.3.0/../../../../../H-x86_64-mingw32/nios2-elf/lib\libc.a(lib_a-mallocr.o)
 .debug_frame   0x0000000000000fac       0x20 c:/software/altera/18.1/nios2eds/bin/gnu/h-x86_64-mingw32/bin/../lib/gcc/nios2-elf/5.3.0/../../../../../H-x86_64-mingw32/nios2-elf/lib\libc.a(lib_a-memset.o)
 .debug_frame   0x0000000000000fcc       0x70 c:/software/altera/18.1/nios2eds/bin/gnu/h-x86_64-mingw32/bin/../lib/gcc/nios2-elf/5.3.0/../../../../../H-x86_64-mingw32/nios2-elf/lib\libc.a(lib_a-putc.o)
 .debug_frame   0x000000000000103c       0x4c c:/software/altera/18.1/nios2eds/bin/gnu/h-x86_64-mingw32/bin/../lib/gcc/nios2-elf/5.3.0/../../../../../H-x86_64-mingw32/nios2-elf/lib\libc.a(lib_a-refill.o)
 .debug_frame   0x0000000000001088       0x38 c:/software/altera/18.1/nios2eds/bin/gnu/h-x86_64-mingw32/bin/../lib/gcc/nios2-elf/5.3.0/../../../../../H-x86_64-mingw32/nios2-elf/lib\libc.a(lib_a-sbrkr.o)
 .debug_frame   0x00000000000010c0       0xb4 c:/software/altera/18.1/nios2eds/bin/gnu/h-x86_64-mingw32/bin/../lib/gcc/nios2-elf/5.3.0/../../../../../H-x86_64-mingw32/nios2-elf/lib\libc.a(lib_a-stdio.o)
 .debug_frame   0x0000000000001174       0x50 c:/software/altera/18.1/nios2eds/bin/gnu/h-x86_64-mingw32/bin/../lib/gcc/nios2-elf/5.3.0/../../../../../H-x86_64-mingw32/nios2-elf/lib\libc.a(lib_a-wbuf.o)
 .debug_frame   0x00000000000011c4       0x38 c:/software/altera/18.1/nios2eds/bin/gnu/h-x86_64-mingw32/bin/../lib/gcc/nios2-elf/5.3.0/../../../../../H-x86_64-mingw32/nios2-elf/lib\libc.a(lib_a-writer.o)
 .debug_frame   0x00000000000011fc       0x38 c:/software/altera/18.1/nios2eds/bin/gnu/h-x86_64-mingw32/bin/../lib/gcc/nios2-elf/5.3.0/../../../../../H-x86_64-mingw32/nios2-elf/lib\libc.a(lib_a-wsetup.o)
 .debug_frame   0x0000000000001234       0x38 c:/software/altera/18.1/nios2eds/bin/gnu/h-x86_64-mingw32/bin/../lib/gcc/nios2-elf/5.3.0/../../../../../H-x86_64-mingw32/nios2-elf/lib\libc.a(closer.o)
 .debug_frame   0x000000000000126c       0x54 c:/software/altera/18.1/nios2eds/bin/gnu/h-x86_64-mingw32/bin/../lib/gcc/nios2-elf/5.3.0/../../../../../H-x86_64-mingw32/nios2-elf/lib\libc.a(lib_a-fclose.o)
 .debug_frame   0x00000000000012c0       0x7c c:/software/altera/18.1/nios2eds/bin/gnu/h-x86_64-mingw32/bin/../lib/gcc/nios2-elf/5.3.0/../../../../../H-x86_64-mingw32/nios2-elf/lib\libc.a(lib_a-fflush.o)
 .debug_frame   0x000000000000133c       0x70 c:/software/altera/18.1/nios2eds/bin/gnu/h-x86_64-mingw32/bin/../lib/gcc/nios2-elf/5.3.0/../../../../../H-x86_64-mingw32/nios2-elf/lib\libc.a(lib_a-freer.o)
 .debug_frame   0x00000000000013ac       0x38 c:/software/altera/18.1/nios2eds/bin/gnu/h-x86_64-mingw32/bin/../lib/gcc/nios2-elf/5.3.0/../../../../../H-x86_64-mingw32/nios2-elf/lib\libc.a(lib_a-lseekr.o)
 .debug_frame   0x00000000000013e4       0x4c c:/software/altera/18.1/nios2eds/bin/gnu/h-x86_64-mingw32/bin/../lib/gcc/nios2-elf/5.3.0/../../../../../H-x86_64-mingw32/nios2-elf/lib\libc.a(lib_a-makebuf.o)
 .debug_frame   0x0000000000001430       0x38 c:/software/altera/18.1/nios2eds/bin/gnu/h-x86_64-mingw32/bin/../lib/gcc/nios2-elf/5.3.0/../../../../../H-x86_64-mingw32/nios2-elf/lib\libc.a(lib_a-readr.o)
 .debug_frame   0x0000000000001468       0x38 c:/software/altera/18.1/nios2eds/bin/gnu/h-x86_64-mingw32/bin/../lib/gcc/nios2-elf/5.3.0/../../../../../H-x86_64-mingw32/nios2-elf/lib\libc.a(lib_a-fstatr.o)
 .debug_frame   0x00000000000014a0       0x38 c:/software/altera/18.1/nios2eds/bin/gnu/h-x86_64-mingw32/bin/../lib/gcc/nios2-elf/5.3.0/../../../../../H-x86_64-mingw32/nios2-elf/lib\libc.a(lib_a-isattyr.o)
 .debug_frame   0x00000000000014d8       0x60 ../Lab2_LOOP_AUDIO_bsp/\libhal_bsp.a(alt_close.o)
 .debug_frame   0x0000000000001538       0x34 ../Lab2_LOOP_AUDIO_bsp/\libhal_bsp.a(alt_dev.o)
 .debug_frame   0x000000000000156c       0x60 ../Lab2_LOOP_AUDIO_bsp/\libhal_bsp.a(alt_fstat.o)
 .debug_frame   0x00000000000015cc       0x60 ../Lab2_LOOP_AUDIO_bsp/\libhal_bsp.a(alt_isatty.o)
 .debug_frame   0x000000000000162c       0x5c ../Lab2_LOOP_AUDIO_bsp/\libhal_bsp.a(alt_load.o)
 .debug_frame   0x0000000000001688       0x60 ../Lab2_LOOP_AUDIO_bsp/\libhal_bsp.a(alt_lseek.o)
 .debug_frame   0x00000000000016e8       0x2c ../Lab2_LOOP_AUDIO_bsp/\libhal_bsp.a(alt_main.o)
 .debug_frame   0x0000000000001714       0x58 ../Lab2_LOOP_AUDIO_bsp/\libhal_bsp.a(alt_malloc_lock.o)
 .debug_frame   0x000000000000176c       0x38 ../Lab2_LOOP_AUDIO_bsp/\libhal_bsp.a(alt_printf.o)
 .debug_frame   0x00000000000017a4       0x38 ../Lab2_LOOP_AUDIO_bsp/\libhal_bsp.a(alt_putchar.o)
 .debug_frame   0x00000000000017dc       0x60 ../Lab2_LOOP_AUDIO_bsp/\libhal_bsp.a(alt_read.o)
 .debug_frame   0x000000000000183c       0x34 ../Lab2_LOOP_AUDIO_bsp/\libhal_bsp.a(alt_release_fd.o)
 .debug_frame   0x0000000000001870       0x34 ../Lab2_LOOP_AUDIO_bsp/\libhal_bsp.a(alt_sbrk.o)
 .debug_frame   0x00000000000018a4       0x60 ../Lab2_LOOP_AUDIO_bsp/\libhal_bsp.a(alt_write.o)
 .debug_frame   0x0000000000001904       0x88 ../Lab2_LOOP_AUDIO_bsp/\libhal_bsp.a(alt_sys_init.o)
 .debug_frame   0x000000000000198c       0x60 ../Lab2_LOOP_AUDIO_bsp/\libhal_bsp.a(altera_avalon_jtag_uart_fd.o)
 .debug_frame   0x00000000000019ec       0x34 ../Lab2_LOOP_AUDIO_bsp/\libhal_bsp.a(altera_avalon_jtag_uart_read.o)
 .debug_frame   0x0000000000001a20       0x34 ../Lab2_LOOP_AUDIO_bsp/\libhal_bsp.a(altera_avalon_jtag_uart_write.o)
 .debug_frame   0x0000000000001a54      0x178 ../Lab2_LOOP_AUDIO_bsp/\libhal_bsp.a(altera_avalon_lcd_16207.o)
 .debug_frame   0x0000000000001bcc       0x38 ../Lab2_LOOP_AUDIO_bsp/\libhal_bsp.a(altera_avalon_lcd_16207_fd.o)
 .debug_frame   0x0000000000001c04       0x60 ../Lab2_LOOP_AUDIO_bsp/\libhal_bsp.a(altera_avalon_timer_sc.o)
 .debug_frame   0x0000000000001c64       0x88 ../Lab2_LOOP_AUDIO_bsp/\libhal_bsp.a(altera_avalon_uart_fd.o)
 .debug_frame   0x0000000000001cec       0xcc ../Lab2_LOOP_AUDIO_bsp/\libhal_bsp.a(altera_avalon_uart_init.o)
 .debug_frame   0x0000000000001db8       0x60 ../Lab2_LOOP_AUDIO_bsp/\libhal_bsp.a(altera_avalon_uart_read.o)
 .debug_frame   0x0000000000001e18       0x60 ../Lab2_LOOP_AUDIO_bsp/\libhal_bsp.a(altera_avalon_uart_write.o)
 .debug_frame   0x0000000000001e78      0x2ac ../Lab2_LOOP_AUDIO_bsp/\libhal_bsp.a(altera_up_avalon_audio.o)
 .debug_frame   0x0000000000002124       0x34 ../Lab2_LOOP_AUDIO_bsp/\libhal_bsp.a(alt_alarm_start.o)
 .debug_frame   0x0000000000002158       0x34 ../Lab2_LOOP_AUDIO_bsp/\libhal_bsp.a(alt_dcache_flush_all.o)
 .debug_frame   0x000000000000218c       0x60 ../Lab2_LOOP_AUDIO_bsp/\libhal_bsp.a(alt_dev_llist_insert.o)
 .debug_frame   0x00000000000021ec       0x38 ../Lab2_LOOP_AUDIO_bsp/\libhal_bsp.a(alt_do_ctors.o)
 .debug_frame   0x0000000000002224       0x38 ../Lab2_LOOP_AUDIO_bsp/\libhal_bsp.a(alt_do_dtors.o)
 .debug_frame   0x000000000000225c       0x38 ../Lab2_LOOP_AUDIO_bsp/\libhal_bsp.a(alt_find_dev.o)
 .debug_frame   0x0000000000002294       0x38 ../Lab2_LOOP_AUDIO_bsp/\libhal_bsp.a(alt_icache_flush_all.o)
 .debug_frame   0x00000000000022cc       0x60 ../Lab2_LOOP_AUDIO_bsp/\libhal_bsp.a(alt_io_redirect.o)
 .debug_frame   0x000000000000232c       0x34 ../Lab2_LOOP_AUDIO_bsp/\libhal_bsp.a(alt_irq_register.o)
 .debug_frame   0x0000000000002360       0x84 ../Lab2_LOOP_AUDIO_bsp/\libhal_bsp.a(alt_open.o)
 .debug_frame   0x00000000000023e4       0x5c ../Lab2_LOOP_AUDIO_bsp/\libhal_bsp.a(alt_tick.o)
 .debug_frame   0x0000000000002440       0x38 ../Lab2_LOOP_AUDIO_bsp/\libhal_bsp.a(alt_usleep.o)
 .debug_frame   0x0000000000002478       0x34 ../Lab2_LOOP_AUDIO_bsp/\libhal_bsp.a(altera_nios2_gen2_irq.o)
 .debug_frame   0x00000000000024ac       0x38 ../Lab2_LOOP_AUDIO_bsp/\libhal_bsp.a(alt_busy_sleep.o)
 .debug_frame   0x00000000000024e4       0x38 ../Lab2_LOOP_AUDIO_bsp/\libhal_bsp.a(alt_find_file.o)
 .debug_frame   0x000000000000251c       0x34 ../Lab2_LOOP_AUDIO_bsp/\libhal_bsp.a(alt_get_fd.o)
 .debug_frame   0x0000000000002550       0x34 ../Lab2_LOOP_AUDIO_bsp/\libhal_bsp.a(alt_icache_flush.o)
 .debug_frame   0x0000000000002584       0x38 ../Lab2_LOOP_AUDIO_bsp/\libhal_bsp.a(alt_irq_handler.o)
 .debug_frame   0x00000000000025bc       0x5c ../Lab2_LOOP_AUDIO_bsp/\libhal_bsp.a(alt_instruction_exception_entry.o)
 .debug_frame   0x0000000000002618       0x20 c:/software/altera/18.1/nios2eds/bin/gnu/h-x86_64-mingw32/bin/../lib/gcc/nios2-elf/5.3.0/../../../../../H-x86_64-mingw32/nios2-elf/lib\libc.a(lib_a-atexit.o)
 .debug_frame   0x0000000000002638       0x28 c:/software/altera/18.1/nios2eds/bin/gnu/h-x86_64-mingw32/bin/../lib/gcc/nios2-elf/5.3.0/../../../../../H-x86_64-mingw32/nios2-elf/lib\libc.a(lib_a-exit.o)
 .debug_frame   0x0000000000002660       0x20 c:/software/altera/18.1/nios2eds/bin/gnu/h-x86_64-mingw32/bin/../lib/gcc/nios2-elf/5.3.0/../../../../../H-x86_64-mingw32/nios2-elf/lib\libc.a(lib_a-memcmp.o)
 .debug_frame   0x0000000000002680       0x38 c:/software/altera/18.1/nios2eds/bin/gnu/h-x86_64-mingw32/bin/../lib/gcc/nios2-elf/5.3.0/../../../../../H-x86_64-mingw32/nios2-elf/lib\libc.a(lib_a-memcpy.o)
 .debug_frame   0x00000000000026b8       0x20 c:/software/altera/18.1/nios2eds/bin/gnu/h-x86_64-mingw32/bin/../lib/gcc/nios2-elf/5.3.0/../../../../../H-x86_64-mingw32/nios2-elf/lib\libc.a(lib_a-strlen.o)
 .debug_frame   0x00000000000026d8       0x38 c:/software/altera/18.1/nios2eds/bin/gnu/h-x86_64-mingw32/bin/../lib/gcc/nios2-elf/5.3.0/../../../../../H-x86_64-mingw32/nios2-elf/lib\libc.a(lib_a-__atexit.o)
 .debug_frame   0x0000000000002710       0x54 c:/software/altera/18.1/nios2eds/bin/gnu/h-x86_64-mingw32/bin/../lib/gcc/nios2-elf/5.3.0/../../../../../H-x86_64-mingw32/nios2-elf/lib\libc.a(lib_a-__call_atexit.o)
 .debug_frame   0x0000000000002764       0x2c ../Lab2_LOOP_AUDIO_bsp/\libhal_bsp.a(alt_exit.o)

.debug_str      0x0000000000000000     0x3650
 *(.debug_str)
 .debug_str     0x0000000000000000      0x10b obj/default/fatfs.o
                                        0x144 (size before relaxing)
 .debug_str     0x000000000000010b      0x1f1 obj/default/fatfs_diskio.o
                                        0x33b (size before relaxing)
 .debug_str     0x00000000000002fc       0x1b obj/default/fatfs_nios2_de0_nano_spi.o
                                         0x9f (size before relaxing)
 .debug_str     0x0000000000000317       0x16 obj/default/fatfs_nios2_de1_pio.o
                                         0x9a (size before relaxing)
 .debug_str     0x000000000000032d       0x16 obj/default/fatfs_nios2_de1_spi.o
                                         0x9a (size before relaxing)
 .debug_str     0x0000000000000343      0x488 obj/default/ff.o
                                        0x66b (size before relaxing)
 .debug_str     0x00000000000007cb       0xb1 obj/default/hello_world.o
                                        0x215 (size before relaxing)
 .debug_str     0x000000000000087c       0x42 obj/default/monitor.o
                                        0x137 (size before relaxing)
 .debug_str     0x00000000000008be      0x3a9 obj/default/uart_nios2.o
                                        0x573 (size before relaxing)
 .debug_str     0x0000000000000c67      0x16d c:/software/altera/18.1/nios2eds/bin/gnu/h-x86_64-mingw32/bin/../lib/gcc/nios2-elf/5.3.0\libgcc.a(lib2-divmod.o)
                                        0x1b8 (size before relaxing)
 .debug_str     0x0000000000000dd4      0x149 c:/software/altera/18.1/nios2eds/bin/gnu/h-x86_64-mingw32/bin/../lib/gcc/nios2-elf/5.3.0/../../../../../H-x86_64-mingw32/nios2-elf/lib\libc.a(lib_a-getc.o)
                                        0x5bb (size before relaxing)
 .debug_str     0x0000000000000f1d       0xdb c:/software/altera/18.1/nios2eds/bin/gnu/h-x86_64-mingw32/bin/../lib/gcc/nios2-elf/5.3.0/../../../../../H-x86_64-mingw32/nios2-elf/lib\libc.a(lib_a-impure.o)
                                        0x59b (size before relaxing)
 .debug_str     0x0000000000000ff8       0x4d c:/software/altera/18.1/nios2eds/bin/gnu/h-x86_64-mingw32/bin/../lib/gcc/nios2-elf/5.3.0/../../../../../H-x86_64-mingw32/nios2-elf/lib\libc.a(lib_a-putchar.o)
                                        0x59e (size before relaxing)
 .debug_str     0x0000000000001045       0x4b c:/software/altera/18.1/nios2eds/bin/gnu/h-x86_64-mingw32/bin/../lib/gcc/nios2-elf/5.3.0/../../../../../H-x86_64-mingw32/nios2-elf/lib\libc.a(lib_a-rget.o)
                                        0x5b5 (size before relaxing)
 .debug_str     0x0000000000001090      0x130 c:/software/altera/18.1/nios2eds/bin/gnu/h-x86_64-mingw32/bin/../lib/gcc/nios2-elf/5.3.0/../../../../../H-x86_64-mingw32/nios2-elf/lib\libc.a(lib_a-findfp.o)
                                        0x6b1 (size before relaxing)
 .debug_str     0x00000000000011c0       0x47 c:/software/altera/18.1/nios2eds/bin/gnu/h-x86_64-mingw32/bin/../lib/gcc/nios2-elf/5.3.0/../../../../../H-x86_64-mingw32/nios2-elf/lib\libc.a(lib_a-fwalk.o)
                                        0x5a0 (size before relaxing)
 .debug_str     0x0000000000001207      0x2af c:/software/altera/18.1/nios2eds/bin/gnu/h-x86_64-mingw32/bin/../lib/gcc/nios2-elf/5.3.0/../../../../../H-x86_64-mingw32/nios2-elf/lib\libc.a(lib_a-mallocr.o)
                                        0x7a0 (size before relaxing)
 .debug_str     0x00000000000014b6       0xd2 c:/software/altera/18.1/nios2eds/bin/gnu/h-x86_64-mingw32/bin/../lib/gcc/nios2-elf/5.3.0/../../../../../H-x86_64-mingw32/nios2-elf/lib\libc.a(lib_a-memset.o)
                                        0x1de (size before relaxing)
 .debug_str     0x0000000000001588       0x41 c:/software/altera/18.1/nios2eds/bin/gnu/h-x86_64-mingw32/bin/../lib/gcc/nios2-elf/5.3.0/../../../../../H-x86_64-mingw32/nios2-elf/lib\libc.a(lib_a-putc.o)
                                        0x5bb (size before relaxing)
 .debug_str     0x00000000000015c9       0x74 c:/software/altera/18.1/nios2eds/bin/gnu/h-x86_64-mingw32/bin/../lib/gcc/nios2-elf/5.3.0/../../../../../H-x86_64-mingw32/nios2-elf/lib\libc.a(lib_a-refill.o)
                                        0x5f6 (size before relaxing)
 .debug_str     0x000000000000163d       0x4c c:/software/altera/18.1/nios2eds/bin/gnu/h-x86_64-mingw32/bin/../lib/gcc/nios2-elf/5.3.0/../../../../../H-x86_64-mingw32/nios2-elf/lib\libc.a(lib_a-sbrkr.o)
                                        0x591 (size before relaxing)
 .debug_str     0x0000000000001689       0x98 c:/software/altera/18.1/nios2eds/bin/gnu/h-x86_64-mingw32/bin/../lib/gcc/nios2-elf/5.3.0/../../../../../H-x86_64-mingw32/nios2-elf/lib\libc.a(lib_a-stdio.o)
                                        0x5ef (size before relaxing)
 .debug_str     0x0000000000001721       0x4b c:/software/altera/18.1/nios2eds/bin/gnu/h-x86_64-mingw32/bin/../lib/gcc/nios2-elf/5.3.0/../../../../../H-x86_64-mingw32/nios2-elf/lib\libc.a(lib_a-wbuf.o)
                                        0x5bf (size before relaxing)
 .debug_str     0x000000000000176c       0x39 c:/software/altera/18.1/nios2eds/bin/gnu/h-x86_64-mingw32/bin/../lib/gcc/nios2-elf/5.3.0/../../../../../H-x86_64-mingw32/nios2-elf/lib\libc.a(lib_a-writer.o)
                                        0x595 (size before relaxing)
 .debug_str     0x00000000000017a5       0x39 c:/software/altera/18.1/nios2eds/bin/gnu/h-x86_64-mingw32/bin/../lib/gcc/nios2-elf/5.3.0/../../../../../H-x86_64-mingw32/nios2-elf/lib\libc.a(lib_a-wsetup.o)
                                        0x5ba (size before relaxing)
 .debug_str     0x00000000000017de       0x39 c:/software/altera/18.1/nios2eds/bin/gnu/h-x86_64-mingw32/bin/../lib/gcc/nios2-elf/5.3.0/../../../../../H-x86_64-mingw32/nios2-elf/lib\libc.a(closer.o)
                                        0x585 (size before relaxing)
 .debug_str     0x0000000000001817       0x4f c:/software/altera/18.1/nios2eds/bin/gnu/h-x86_64-mingw32/bin/../lib/gcc/nios2-elf/5.3.0/../../../../../H-x86_64-mingw32/nios2-elf/lib\libc.a(lib_a-fclose.o)
                                        0x5e8 (size before relaxing)
 .debug_str     0x0000000000001866       0x4a c:/software/altera/18.1/nios2eds/bin/gnu/h-x86_64-mingw32/bin/../lib/gcc/nios2-elf/5.3.0/../../../../../H-x86_64-mingw32/nios2-elf/lib\libc.a(lib_a-fflush.o)
                                        0x5fb (size before relaxing)
 .debug_str     0x00000000000018b0       0x34 c:/software/altera/18.1/nios2eds/bin/gnu/h-x86_64-mingw32/bin/../lib/gcc/nios2-elf/5.3.0/../../../../../H-x86_64-mingw32/nios2-elf/lib\libc.a(lib_a-freer.o)
                                        0x6ea (size before relaxing)
 .debug_str     0x00000000000018e4       0x3c c:/software/altera/18.1/nios2eds/bin/gnu/h-x86_64-mingw32/bin/../lib/gcc/nios2-elf/5.3.0/../../../../../H-x86_64-mingw32/nios2-elf/lib\libc.a(lib_a-int_errno.o)
                                        0x1c3 (size before relaxing)
 .debug_str     0x0000000000001920       0x39 c:/software/altera/18.1/nios2eds/bin/gnu/h-x86_64-mingw32/bin/../lib/gcc/nios2-elf/5.3.0/../../../../../H-x86_64-mingw32/nios2-elf/lib\libc.a(lib_a-lseekr.o)
                                        0x58c (size before relaxing)
 .debug_str     0x0000000000001959      0x121 c:/software/altera/18.1/nios2eds/bin/gnu/h-x86_64-mingw32/bin/../lib/gcc/nios2-elf/5.3.0/../../../../../H-x86_64-mingw32/nios2-elf/lib\libc.a(lib_a-makebuf.o)
                                        0x69d (size before relaxing)
 .debug_str     0x0000000000001a7a       0x38 c:/software/altera/18.1/nios2eds/bin/gnu/h-x86_64-mingw32/bin/../lib/gcc/nios2-elf/5.3.0/../../../../../H-x86_64-mingw32/nios2-elf/lib\libc.a(lib_a-readr.o)
                                        0x592 (size before relaxing)
 .debug_str     0x0000000000001ab2       0x3f c:/software/altera/18.1/nios2eds/bin/gnu/h-x86_64-mingw32/bin/../lib/gcc/nios2-elf/5.3.0/../../../../../H-x86_64-mingw32/nios2-elf/lib\libc.a(lib_a-fstatr.o)
                                        0x671 (size before relaxing)
 .debug_str     0x0000000000001af1       0x41 c:/software/altera/18.1/nios2eds/bin/gnu/h-x86_64-mingw32/bin/../lib/gcc/nios2-elf/5.3.0/../../../../../H-x86_64-mingw32/nios2-elf/lib\libc.a(lib_a-isattyr.o)
                                        0x588 (size before relaxing)
 .debug_str     0x0000000000001b32       0x86 ../Lab2_LOOP_AUDIO_bsp/\libhal_bsp.a(alt_close.o)
                                        0x210 (size before relaxing)
 .debug_str     0x0000000000001bb8       0x50 ../Lab2_LOOP_AUDIO_bsp/\libhal_bsp.a(alt_dev.o)
                                        0x30a (size before relaxing)
 .debug_str     0x0000000000001c08       0x14 ../Lab2_LOOP_AUDIO_bsp/\libhal_bsp.a(alt_errno.o)
                                        0x14a (size before relaxing)
 .debug_str     0x0000000000001c1c       0x14 ../Lab2_LOOP_AUDIO_bsp/\libhal_bsp.a(alt_fstat.o)
                                        0x2f1 (size before relaxing)
 .debug_str     0x0000000000001c30       0x15 ../Lab2_LOOP_AUDIO_bsp/\libhal_bsp.a(alt_isatty.o)
                                        0x2f9 (size before relaxing)
 .debug_str     0x0000000000001c45       0xe9 ../Lab2_LOOP_AUDIO_bsp/\libhal_bsp.a(alt_load.o)
                                        0x217 (size before relaxing)
 .debug_str     0x0000000000001d2e       0x14 ../Lab2_LOOP_AUDIO_bsp/\libhal_bsp.a(alt_lseek.o)
                                        0x216 (size before relaxing)
 .debug_str     0x0000000000001d42       0x44 ../Lab2_LOOP_AUDIO_bsp/\libhal_bsp.a(alt_main.o)
                                        0x1cb (size before relaxing)
 .debug_str     0x0000000000001d86       0x1a ../Lab2_LOOP_AUDIO_bsp/\libhal_bsp.a(alt_malloc_lock.o)
                                        0x514 (size before relaxing)
 .debug_str     0x0000000000001da0       0x27 ../Lab2_LOOP_AUDIO_bsp/\libhal_bsp.a(alt_printf.o)
                                         0xff (size before relaxing)
 .debug_str     0x0000000000001dc7       0x22 ../Lab2_LOOP_AUDIO_bsp/\libhal_bsp.a(alt_putchar.o)
                                        0x50a (size before relaxing)
 .debug_str     0x0000000000001de9       0x13 ../Lab2_LOOP_AUDIO_bsp/\libhal_bsp.a(alt_read.o)
                                        0x2fc (size before relaxing)
 .debug_str     0x0000000000001dfc       0x28 ../Lab2_LOOP_AUDIO_bsp/\libhal_bsp.a(alt_release_fd.o)
                                        0x1d8 (size before relaxing)
 .debug_str     0x0000000000001e24       0x98 ../Lab2_LOOP_AUDIO_bsp/\libhal_bsp.a(alt_sbrk.o)
                                        0x202 (size before relaxing)
 .debug_str     0x0000000000001ebc       0x14 ../Lab2_LOOP_AUDIO_bsp/\libhal_bsp.a(alt_write.o)
                                        0x2fd (size before relaxing)
 .debug_str     0x0000000000001ed0      0x38b ../Lab2_LOOP_AUDIO_bsp/\libhal_bsp.a(alt_sys_init.o)
                                        0x5ec (size before relaxing)
 .debug_str     0x000000000000225b       0x6a ../Lab2_LOOP_AUDIO_bsp/\libhal_bsp.a(altera_avalon_jtag_uart_fd.o)
                                        0x2da (size before relaxing)
 .debug_str     0x00000000000022c5       0x48 ../Lab2_LOOP_AUDIO_bsp/\libhal_bsp.a(altera_avalon_jtag_uart_read.o)
                                        0x245 (size before relaxing)
 .debug_str     0x000000000000230d       0x4a ../Lab2_LOOP_AUDIO_bsp/\libhal_bsp.a(altera_avalon_jtag_uart_write.o)
                                        0x23b (size before relaxing)
 .debug_str     0x0000000000002357      0x20e ../Lab2_LOOP_AUDIO_bsp/\libhal_bsp.a(altera_avalon_lcd_16207.o)
                                        0x494 (size before relaxing)
 .debug_str     0x0000000000002565       0x4a ../Lab2_LOOP_AUDIO_bsp/\libhal_bsp.a(altera_avalon_lcd_16207_fd.o)
                                        0x35d (size before relaxing)
 .debug_str     0x00000000000025af       0x7f ../Lab2_LOOP_AUDIO_bsp/\libhal_bsp.a(altera_avalon_timer_sc.o)
                                        0x271 (size before relaxing)
 .debug_str     0x000000000000262e       0x77 ../Lab2_LOOP_AUDIO_bsp/\libhal_bsp.a(altera_avalon_uart_fd.o)
                                        0x2fa (size before relaxing)
 .debug_str     0x00000000000026a5       0xa7 ../Lab2_LOOP_AUDIO_bsp/\libhal_bsp.a(altera_avalon_uart_init.o)
                                        0x2dd (size before relaxing)
 .debug_str     0x000000000000274c       0x4f ../Lab2_LOOP_AUDIO_bsp/\libhal_bsp.a(altera_avalon_uart_read.o)
                                        0x2be (size before relaxing)
 .debug_str     0x000000000000279b       0x49 ../Lab2_LOOP_AUDIO_bsp/\libhal_bsp.a(altera_avalon_uart_write.o)
                                        0x2b2 (size before relaxing)
 .debug_str     0x00000000000027e4      0x243 ../Lab2_LOOP_AUDIO_bsp/\libhal_bsp.a(altera_up_avalon_audio.o)
                                        0x442 (size before relaxing)
 .debug_str     0x0000000000002a27       0x59 ../Lab2_LOOP_AUDIO_bsp/\libhal_bsp.a(alt_alarm_start.o)
                                        0x2a4 (size before relaxing)
 .debug_str     0x0000000000002a80       0x34 ../Lab2_LOOP_AUDIO_bsp/\libhal_bsp.a(alt_dcache_flush_all.o)
                                        0x15a (size before relaxing)
 .debug_str     0x0000000000002ab4       0x34 ../Lab2_LOOP_AUDIO_bsp/\libhal_bsp.a(alt_dev_llist_insert.o)
                                        0x1d1 (size before relaxing)
 .debug_str     0x0000000000002ae8       0x48 ../Lab2_LOOP_AUDIO_bsp/\libhal_bsp.a(alt_do_ctors.o)
                                         0xd5 (size before relaxing)
 .debug_str     0x0000000000002b30       0x4c ../Lab2_LOOP_AUDIO_bsp/\libhal_bsp.a(alt_do_dtors.o)
                                         0xd4 (size before relaxing)
 .debug_str     0x0000000000002b7c       0x24 ../Lab2_LOOP_AUDIO_bsp/\libhal_bsp.a(alt_find_dev.o)
                                        0x1f1 (size before relaxing)
 .debug_str     0x0000000000002ba0       0x34 ../Lab2_LOOP_AUDIO_bsp/\libhal_bsp.a(alt_icache_flush_all.o)
                                        0x15a (size before relaxing)
 .debug_str     0x0000000000002bd4       0x56 ../Lab2_LOOP_AUDIO_bsp/\libhal_bsp.a(alt_io_redirect.o)
                                        0x31b (size before relaxing)
 .debug_str     0x0000000000002c2a       0x70 ../Lab2_LOOP_AUDIO_bsp/\libhal_bsp.a(alt_irq_register.o)
                                        0x20d (size before relaxing)
 .debug_str     0x0000000000002c9a       0x17 ../Lab2_LOOP_AUDIO_bsp/\libhal_bsp.a(alt_irq_vars.o)
                                        0x13f (size before relaxing)
 .debug_str     0x0000000000002cb1       0x29 ../Lab2_LOOP_AUDIO_bsp/\libhal_bsp.a(alt_open.o)
                                        0x250 (size before relaxing)
 .debug_str     0x0000000000002cda       0x4a ../Lab2_LOOP_AUDIO_bsp/\libhal_bsp.a(alt_tick.o)
                                        0x278 (size before relaxing)
 .debug_str     0x0000000000002d24       0x27 ../Lab2_LOOP_AUDIO_bsp/\libhal_bsp.a(alt_usleep.o)
                                        0x14d (size before relaxing)
 .debug_str     0x0000000000002d4b       0x3b ../Lab2_LOOP_AUDIO_bsp/\libhal_bsp.a(altera_nios2_gen2_irq.o)
                                        0x18a (size before relaxing)
 .debug_str     0x0000000000002d86       0x42 ../Lab2_LOOP_AUDIO_bsp/\libhal_bsp.a(alt_busy_sleep.o)
                                        0x170 (size before relaxing)
 .debug_str     0x0000000000002dc8       0x26 ../Lab2_LOOP_AUDIO_bsp/\libhal_bsp.a(alt_find_file.o)
                                        0x1ff (size before relaxing)
 .debug_str     0x0000000000002dee       0x30 ../Lab2_LOOP_AUDIO_bsp/\libhal_bsp.a(alt_get_fd.o)
                                        0x221 (size before relaxing)
 .debug_str     0x0000000000002e1e       0x2c ../Lab2_LOOP_AUDIO_bsp/\libhal_bsp.a(alt_icache_flush.o)
                                        0x160 (size before relaxing)
 .debug_str     0x0000000000002e4a       0x3a ../Lab2_LOOP_AUDIO_bsp/\libhal_bsp.a(alt_irq_handler.o)
                                        0x1bd (size before relaxing)
 .debug_str     0x0000000000002e84      0x48b ../Lab2_LOOP_AUDIO_bsp/\libhal_bsp.a(alt_instruction_exception_entry.o)
                                        0x5a5 (size before relaxing)
 .debug_str     0x000000000000330f       0x7e c:/software/altera/18.1/nios2eds/bin/gnu/h-x86_64-mingw32/bin/../lib/gcc/nios2-elf/5.3.0/../../../../../H-x86_64-mingw32/nios2-elf/lib\libc.a(lib_a-atexit.o)
                                        0x207 (size before relaxing)
 .debug_str     0x000000000000338d       0xcd c:/software/altera/18.1/nios2eds/bin/gnu/h-x86_64-mingw32/bin/../lib/gcc/nios2-elf/5.3.0/../../../../../H-x86_64-mingw32/nios2-elf/lib\libc.a(lib_a-ctype_.o)
                                        0x149 (size before relaxing)
 .debug_str     0x000000000000345a       0x49 c:/software/altera/18.1/nios2eds/bin/gnu/h-x86_64-mingw32/bin/../lib/gcc/nios2-elf/5.3.0/../../../../../H-x86_64-mingw32/nios2-elf/lib\libc.a(lib_a-exit.o)
                                        0x5a4 (size before relaxing)
 .debug_str     0x00000000000034a3       0x41 c:/software/altera/18.1/nios2eds/bin/gnu/h-x86_64-mingw32/bin/../lib/gcc/nios2-elf/5.3.0/../../../../../H-x86_64-mingw32/nios2-elf/lib\libc.a(lib_a-memcmp.o)
                                        0x1ca (size before relaxing)
 .debug_str     0x00000000000034e4       0x68 c:/software/altera/18.1/nios2eds/bin/gnu/h-x86_64-mingw32/bin/../lib/gcc/nios2-elf/5.3.0/../../../../../H-x86_64-mingw32/nios2-elf/lib\libc.a(lib_a-memcpy.o)
                                        0x1f1 (size before relaxing)
 .debug_str     0x000000000000354c       0x41 c:/software/altera/18.1/nios2eds/bin/gnu/h-x86_64-mingw32/bin/../lib/gcc/nios2-elf/5.3.0/../../../../../H-x86_64-mingw32/nios2-elf/lib\libc.a(lib_a-strlen.o)
                                        0x1dd (size before relaxing)
 .debug_str     0x000000000000358d       0x3c c:/software/altera/18.1/nios2eds/bin/gnu/h-x86_64-mingw32/bin/../lib/gcc/nios2-elf/5.3.0/../../../../../H-x86_64-mingw32/nios2-elf/lib\libc.a(lib_a-__atexit.o)
                                        0x5dc (size before relaxing)
 .debug_str     0x00000000000035c9       0x5d c:/software/altera/18.1/nios2eds/bin/gnu/h-x86_64-mingw32/bin/../lib/gcc/nios2-elf/5.3.0/../../../../../H-x86_64-mingw32/nios2-elf/lib\libc.a(lib_a-__call_atexit.o)
                                        0x5c8 (size before relaxing)
 .debug_str     0x0000000000003626       0x2a ../Lab2_LOOP_AUDIO_bsp/\libhal_bsp.a(alt_exit.o)
                                        0x17f (size before relaxing)

.debug_loc      0x0000000000000000     0x38e3
 *(.debug_loc)
 .debug_loc     0x0000000000000000      0x4ce c:/software/altera/18.1/nios2eds/bin/gnu/h-x86_64-mingw32/bin/../lib/gcc/nios2-elf/5.3.0\libgcc.a(lib2-divmod.o)
 .debug_loc     0x00000000000004ce      0x1a2 c:/software/altera/18.1/nios2eds/bin/gnu/h-x86_64-mingw32/bin/../lib/gcc/nios2-elf/5.3.0/../../../../../H-x86_64-mingw32/nios2-elf/lib\libc.a(lib_a-getc.o)
 .debug_loc     0x0000000000000670       0x81 c:/software/altera/18.1/nios2eds/bin/gnu/h-x86_64-mingw32/bin/../lib/gcc/nios2-elf/5.3.0/../../../../../H-x86_64-mingw32/nios2-elf/lib\libc.a(lib_a-putchar.o)
 .debug_loc     0x00000000000006f1       0xf2 c:/software/altera/18.1/nios2eds/bin/gnu/h-x86_64-mingw32/bin/../lib/gcc/nios2-elf/5.3.0/../../../../../H-x86_64-mingw32/nios2-elf/lib\libc.a(lib_a-rget.o)
 .debug_loc     0x00000000000007e3      0x2ee c:/software/altera/18.1/nios2eds/bin/gnu/h-x86_64-mingw32/bin/../lib/gcc/nios2-elf/5.3.0/../../../../../H-x86_64-mingw32/nios2-elf/lib\libc.a(lib_a-findfp.o)
 .debug_loc     0x0000000000000ad1      0x25b c:/software/altera/18.1/nios2eds/bin/gnu/h-x86_64-mingw32/bin/../lib/gcc/nios2-elf/5.3.0/../../../../../H-x86_64-mingw32/nios2-elf/lib\libc.a(lib_a-fwalk.o)
 .debug_loc     0x0000000000000d2c      0xb1b c:/software/altera/18.1/nios2eds/bin/gnu/h-x86_64-mingw32/bin/../lib/gcc/nios2-elf/5.3.0/../../../../../H-x86_64-mingw32/nios2-elf/lib\libc.a(lib_a-mallocr.o)
 .debug_loc     0x0000000000001847      0x1a6 c:/software/altera/18.1/nios2eds/bin/gnu/h-x86_64-mingw32/bin/../lib/gcc/nios2-elf/5.3.0/../../../../../H-x86_64-mingw32/nios2-elf/lib\libc.a(lib_a-memset.o)
 .debug_loc     0x00000000000019ed      0x224 c:/software/altera/18.1/nios2eds/bin/gnu/h-x86_64-mingw32/bin/../lib/gcc/nios2-elf/5.3.0/../../../../../H-x86_64-mingw32/nios2-elf/lib\libc.a(lib_a-putc.o)
 .debug_loc     0x0000000000001c11      0x127 c:/software/altera/18.1/nios2eds/bin/gnu/h-x86_64-mingw32/bin/../lib/gcc/nios2-elf/5.3.0/../../../../../H-x86_64-mingw32/nios2-elf/lib\libc.a(lib_a-refill.o)
 .debug_loc     0x0000000000001d38       0x58 c:/software/altera/18.1/nios2eds/bin/gnu/h-x86_64-mingw32/bin/../lib/gcc/nios2-elf/5.3.0/../../../../../H-x86_64-mingw32/nios2-elf/lib\libc.a(lib_a-sbrkr.o)
 .debug_loc     0x0000000000001d90      0x33a c:/software/altera/18.1/nios2eds/bin/gnu/h-x86_64-mingw32/bin/../lib/gcc/nios2-elf/5.3.0/../../../../../H-x86_64-mingw32/nios2-elf/lib\libc.a(lib_a-stdio.o)
 .debug_loc     0x00000000000020ca      0x1b2 c:/software/altera/18.1/nios2eds/bin/gnu/h-x86_64-mingw32/bin/../lib/gcc/nios2-elf/5.3.0/../../../../../H-x86_64-mingw32/nios2-elf/lib\libc.a(lib_a-wbuf.o)
 .debug_loc     0x000000000000227c       0xb0 c:/software/altera/18.1/nios2eds/bin/gnu/h-x86_64-mingw32/bin/../lib/gcc/nios2-elf/5.3.0/../../../../../H-x86_64-mingw32/nios2-elf/lib\libc.a(lib_a-writer.o)
 .debug_loc     0x000000000000232c       0xa2 c:/software/altera/18.1/nios2eds/bin/gnu/h-x86_64-mingw32/bin/../lib/gcc/nios2-elf/5.3.0/../../../../../H-x86_64-mingw32/nios2-elf/lib\libc.a(lib_a-wsetup.o)
 .debug_loc     0x00000000000023ce       0x58 c:/software/altera/18.1/nios2eds/bin/gnu/h-x86_64-mingw32/bin/../lib/gcc/nios2-elf/5.3.0/../../../../../H-x86_64-mingw32/nios2-elf/lib\libc.a(closer.o)
 .debug_loc     0x0000000000002426      0x199 c:/software/altera/18.1/nios2eds/bin/gnu/h-x86_64-mingw32/bin/../lib/gcc/nios2-elf/5.3.0/../../../../../H-x86_64-mingw32/nios2-elf/lib\libc.a(lib_a-fclose.o)
 .debug_loc     0x00000000000025bf      0x36f c:/software/altera/18.1/nios2eds/bin/gnu/h-x86_64-mingw32/bin/../lib/gcc/nios2-elf/5.3.0/../../../../../H-x86_64-mingw32/nios2-elf/lib\libc.a(lib_a-fflush.o)
 .debug_loc     0x000000000000292e      0x4e7 c:/software/altera/18.1/nios2eds/bin/gnu/h-x86_64-mingw32/bin/../lib/gcc/nios2-elf/5.3.0/../../../../../H-x86_64-mingw32/nios2-elf/lib\libc.a(lib_a-freer.o)
 .debug_loc     0x0000000000002e15       0xb0 c:/software/altera/18.1/nios2eds/bin/gnu/h-x86_64-mingw32/bin/../lib/gcc/nios2-elf/5.3.0/../../../../../H-x86_64-mingw32/nios2-elf/lib\libc.a(lib_a-lseekr.o)
 .debug_loc     0x0000000000002ec5      0x122 c:/software/altera/18.1/nios2eds/bin/gnu/h-x86_64-mingw32/bin/../lib/gcc/nios2-elf/5.3.0/../../../../../H-x86_64-mingw32/nios2-elf/lib\libc.a(lib_a-makebuf.o)
 .debug_loc     0x0000000000002fe7       0xb0 c:/software/altera/18.1/nios2eds/bin/gnu/h-x86_64-mingw32/bin/../lib/gcc/nios2-elf/5.3.0/../../../../../H-x86_64-mingw32/nios2-elf/lib\libc.a(lib_a-readr.o)
 .debug_loc     0x0000000000003097       0x84 c:/software/altera/18.1/nios2eds/bin/gnu/h-x86_64-mingw32/bin/../lib/gcc/nios2-elf/5.3.0/../../../../../H-x86_64-mingw32/nios2-elf/lib\libc.a(lib_a-fstatr.o)
 .debug_loc     0x000000000000311b       0x58 c:/software/altera/18.1/nios2eds/bin/gnu/h-x86_64-mingw32/bin/../lib/gcc/nios2-elf/5.3.0/../../../../../H-x86_64-mingw32/nios2-elf/lib\libc.a(lib_a-isattyr.o)
 .debug_loc     0x0000000000003173       0x2c c:/software/altera/18.1/nios2eds/bin/gnu/h-x86_64-mingw32/bin/../lib/gcc/nios2-elf/5.3.0/../../../../../H-x86_64-mingw32/nios2-elf/lib\libc.a(lib_a-atexit.o)
 .debug_loc     0x000000000000319f       0x1e c:/software/altera/18.1/nios2eds/bin/gnu/h-x86_64-mingw32/bin/../lib/gcc/nios2-elf/5.3.0/../../../../../H-x86_64-mingw32/nios2-elf/lib\libc.a(lib_a-exit.o)
 .debug_loc     0x00000000000031bd      0x126 c:/software/altera/18.1/nios2eds/bin/gnu/h-x86_64-mingw32/bin/../lib/gcc/nios2-elf/5.3.0/../../../../../H-x86_64-mingw32/nios2-elf/lib\libc.a(lib_a-memcmp.o)
 .debug_loc     0x00000000000032e3      0x266 c:/software/altera/18.1/nios2eds/bin/gnu/h-x86_64-mingw32/bin/../lib/gcc/nios2-elf/5.3.0/../../../../../H-x86_64-mingw32/nios2-elf/lib\libc.a(lib_a-memcpy.o)
 .debug_loc     0x0000000000003549       0x47 c:/software/altera/18.1/nios2eds/bin/gnu/h-x86_64-mingw32/bin/../lib/gcc/nios2-elf/5.3.0/../../../../../H-x86_64-mingw32/nios2-elf/lib\libc.a(lib_a-strlen.o)
 .debug_loc     0x0000000000003590      0x185 c:/software/altera/18.1/nios2eds/bin/gnu/h-x86_64-mingw32/bin/../lib/gcc/nios2-elf/5.3.0/../../../../../H-x86_64-mingw32/nios2-elf/lib\libc.a(lib_a-__atexit.o)
 .debug_loc     0x0000000000003715      0x1ce c:/software/altera/18.1/nios2eds/bin/gnu/h-x86_64-mingw32/bin/../lib/gcc/nios2-elf/5.3.0/../../../../../H-x86_64-mingw32/nios2-elf/lib\libc.a(lib_a-__call_atexit.o)

.debug_macinfo
 *(.debug_macinfo)

.debug_weaknames
 *(.debug_weaknames)

.debug_funcnames
 *(.debug_funcnames)

.debug_typenames
 *(.debug_typenames)

.debug_varnames
 *(.debug_varnames)

.debug_alt_sim_info
                0x0000000000000000       0x60
 *(.debug_alt_sim_info)
 .debug_alt_sim_info
                0x0000000000000000       0x30 ../Lab2_LOOP_AUDIO_bsp//obj/HAL/src/crt0.o
 .debug_alt_sim_info
                0x0000000000000030       0x30 ../Lab2_LOOP_AUDIO_bsp/\libhal_bsp.a(alt_busy_sleep.o)
                0x0000000001000000                __alt_data_end = 0x1000000
                0x0000000001000000                PROVIDE (__alt_stack_pointer, __alt_data_end)
                [!provide]                        PROVIDE (__alt_stack_limit, __alt_stack_base)
                0x000000000081139c                PROVIDE (__alt_heap_start, end)
                0x0000000001000000                PROVIDE (__alt_heap_limit, 0x1000000)
OUTPUT(Lab2_LOOP_AUDIO.elf elf32-littlenios2)

.debug_ranges   0x0000000000000000      0x5d8
 .debug_ranges  0x0000000000000000       0x20 ../Lab2_LOOP_AUDIO_bsp//obj/HAL/src/crt0.o
 .debug_ranges  0x0000000000000020       0x60 c:/software/altera/18.1/nios2eds/bin/gnu/h-x86_64-mingw32/bin/../lib/gcc/nios2-elf/5.3.0\libgcc.a(lib2-divmod.o)
 .debug_ranges  0x0000000000000080       0x48 c:/software/altera/18.1/nios2eds/bin/gnu/h-x86_64-mingw32/bin/../lib/gcc/nios2-elf/5.3.0/../../../../../H-x86_64-mingw32/nios2-elf/lib\libc.a(lib_a-getc.o)
 .debug_ranges  0x00000000000000c8       0x18 c:/software/altera/18.1/nios2eds/bin/gnu/h-x86_64-mingw32/bin/../lib/gcc/nios2-elf/5.3.0/../../../../../H-x86_64-mingw32/nios2-elf/lib\libc.a(lib_a-putchar.o)
 .debug_ranges  0x00000000000000e0       0x30 c:/software/altera/18.1/nios2eds/bin/gnu/h-x86_64-mingw32/bin/../lib/gcc/nios2-elf/5.3.0/../../../../../H-x86_64-mingw32/nios2-elf/lib\libc.a(lib_a-rget.o)
 .debug_ranges  0x0000000000000110       0xc8 c:/software/altera/18.1/nios2eds/bin/gnu/h-x86_64-mingw32/bin/../lib/gcc/nios2-elf/5.3.0/../../../../../H-x86_64-mingw32/nios2-elf/lib\libc.a(lib_a-findfp.o)
 .debug_ranges  0x00000000000001d8       0x18 c:/software/altera/18.1/nios2eds/bin/gnu/h-x86_64-mingw32/bin/../lib/gcc/nios2-elf/5.3.0/../../../../../H-x86_64-mingw32/nios2-elf/lib\libc.a(lib_a-fwalk.o)
 .debug_ranges  0x00000000000001f0       0x48 c:/software/altera/18.1/nios2eds/bin/gnu/h-x86_64-mingw32/bin/../lib/gcc/nios2-elf/5.3.0/../../../../../H-x86_64-mingw32/nios2-elf/lib\libc.a(lib_a-mallocr.o)
 .debug_ranges  0x0000000000000238       0x10 c:/software/altera/18.1/nios2eds/bin/gnu/h-x86_64-mingw32/bin/../lib/gcc/nios2-elf/5.3.0/../../../../../H-x86_64-mingw32/nios2-elf/lib\libc.a(lib_a-memset.o)
 .debug_ranges  0x0000000000000248       0x48 c:/software/altera/18.1/nios2eds/bin/gnu/h-x86_64-mingw32/bin/../lib/gcc/nios2-elf/5.3.0/../../../../../H-x86_64-mingw32/nios2-elf/lib\libc.a(lib_a-putc.o)
 .debug_ranges  0x0000000000000290       0x30 c:/software/altera/18.1/nios2eds/bin/gnu/h-x86_64-mingw32/bin/../lib/gcc/nios2-elf/5.3.0/../../../../../H-x86_64-mingw32/nios2-elf/lib\libc.a(lib_a-refill.o)
 .debug_ranges  0x00000000000002c0       0x10 c:/software/altera/18.1/nios2eds/bin/gnu/h-x86_64-mingw32/bin/../lib/gcc/nios2-elf/5.3.0/../../../../../H-x86_64-mingw32/nios2-elf/lib\libc.a(lib_a-sbrkr.o)
 .debug_ranges  0x00000000000002d0       0x30 c:/software/altera/18.1/nios2eds/bin/gnu/h-x86_64-mingw32/bin/../lib/gcc/nios2-elf/5.3.0/../../../../../H-x86_64-mingw32/nios2-elf/lib\libc.a(lib_a-stdio.o)
 .debug_ranges  0x0000000000000300       0x30 c:/software/altera/18.1/nios2eds/bin/gnu/h-x86_64-mingw32/bin/../lib/gcc/nios2-elf/5.3.0/../../../../../H-x86_64-mingw32/nios2-elf/lib\libc.a(lib_a-wbuf.o)
 .debug_ranges  0x0000000000000330       0x10 c:/software/altera/18.1/nios2eds/bin/gnu/h-x86_64-mingw32/bin/../lib/gcc/nios2-elf/5.3.0/../../../../../H-x86_64-mingw32/nios2-elf/lib\libc.a(lib_a-writer.o)
 .debug_ranges  0x0000000000000340       0x40 c:/software/altera/18.1/nios2eds/bin/gnu/h-x86_64-mingw32/bin/../lib/gcc/nios2-elf/5.3.0/../../../../../H-x86_64-mingw32/nios2-elf/lib\libc.a(lib_a-wsetup.o)
 .debug_ranges  0x0000000000000380       0x10 c:/software/altera/18.1/nios2eds/bin/gnu/h-x86_64-mingw32/bin/../lib/gcc/nios2-elf/5.3.0/../../../../../H-x86_64-mingw32/nios2-elf/lib\libc.a(closer.o)
 .debug_ranges  0x0000000000000390       0x48 c:/software/altera/18.1/nios2eds/bin/gnu/h-x86_64-mingw32/bin/../lib/gcc/nios2-elf/5.3.0/../../../../../H-x86_64-mingw32/nios2-elf/lib\libc.a(lib_a-fclose.o)
 .debug_ranges  0x00000000000003d8       0x58 c:/software/altera/18.1/nios2eds/bin/gnu/h-x86_64-mingw32/bin/../lib/gcc/nios2-elf/5.3.0/../../../../../H-x86_64-mingw32/nios2-elf/lib\libc.a(lib_a-fflush.o)
 .debug_ranges  0x0000000000000430       0x18 c:/software/altera/18.1/nios2eds/bin/gnu/h-x86_64-mingw32/bin/../lib/gcc/nios2-elf/5.3.0/../../../../../H-x86_64-mingw32/nios2-elf/lib\libc.a(lib_a-freer.o)
 .debug_ranges  0x0000000000000448       0x10 c:/software/altera/18.1/nios2eds/bin/gnu/h-x86_64-mingw32/bin/../lib/gcc/nios2-elf/5.3.0/../../../../../H-x86_64-mingw32/nios2-elf/lib\libc.a(lib_a-lseekr.o)
 .debug_ranges  0x0000000000000458       0x10 c:/software/altera/18.1/nios2eds/bin/gnu/h-x86_64-mingw32/bin/../lib/gcc/nios2-elf/5.3.0/../../../../../H-x86_64-mingw32/nios2-elf/lib\libc.a(lib_a-makebuf.o)
 .debug_ranges  0x0000000000000468       0x10 c:/software/altera/18.1/nios2eds/bin/gnu/h-x86_64-mingw32/bin/../lib/gcc/nios2-elf/5.3.0/../../../../../H-x86_64-mingw32/nios2-elf/lib\libc.a(lib_a-readr.o)
 .debug_ranges  0x0000000000000478       0x10 c:/software/altera/18.1/nios2eds/bin/gnu/h-x86_64-mingw32/bin/../lib/gcc/nios2-elf/5.3.0/../../../../../H-x86_64-mingw32/nios2-elf/lib\libc.a(lib_a-fstatr.o)
 .debug_ranges  0x0000000000000488       0x10 c:/software/altera/18.1/nios2eds/bin/gnu/h-x86_64-mingw32/bin/../lib/gcc/nios2-elf/5.3.0/../../../../../H-x86_64-mingw32/nios2-elf/lib\libc.a(lib_a-isattyr.o)
 .debug_ranges  0x0000000000000498       0x18 ../Lab2_LOOP_AUDIO_bsp/\libhal_bsp.a(altera_avalon_jtag_uart_read.o)
 .debug_ranges  0x00000000000004b0       0x18 ../Lab2_LOOP_AUDIO_bsp/\libhal_bsp.a(altera_avalon_lcd_16207.o)
 .debug_ranges  0x00000000000004c8       0x28 ../Lab2_LOOP_AUDIO_bsp/\libhal_bsp.a(alt_irq_entry.o)
 .debug_ranges  0x00000000000004f0       0x10 ../Lab2_LOOP_AUDIO_bsp/\libhal_bsp.a(alt_irq_handler.o)
 .debug_ranges  0x0000000000000500       0x30 ../Lab2_LOOP_AUDIO_bsp/\libhal_bsp.a(alt_exception_entry.o)
 .debug_ranges  0x0000000000000530       0x18 ../Lab2_LOOP_AUDIO_bsp/\libhal_bsp.a(alt_instruction_exception_entry.o)
 .debug_ranges  0x0000000000000548       0x10 c:/software/altera/18.1/nios2eds/bin/gnu/h-x86_64-mingw32/bin/../lib/gcc/nios2-elf/5.3.0/../../../../../H-x86_64-mingw32/nios2-elf/lib\libc.a(lib_a-atexit.o)
 .debug_ranges  0x0000000000000558       0x10 c:/software/altera/18.1/nios2eds/bin/gnu/h-x86_64-mingw32/bin/../lib/gcc/nios2-elf/5.3.0/../../../../../H-x86_64-mingw32/nios2-elf/lib\libc.a(lib_a-exit.o)
 .debug_ranges  0x0000000000000568       0x10 c:/software/altera/18.1/nios2eds/bin/gnu/h-x86_64-mingw32/bin/../lib/gcc/nios2-elf/5.3.0/../../../../../H-x86_64-mingw32/nios2-elf/lib\libc.a(lib_a-memcmp.o)
 .debug_ranges  0x0000000000000578       0x10 c:/software/altera/18.1/nios2eds/bin/gnu/h-x86_64-mingw32/bin/../lib/gcc/nios2-elf/5.3.0/../../../../../H-x86_64-mingw32/nios2-elf/lib\libc.a(lib_a-memcpy.o)
 .debug_ranges  0x0000000000000588       0x10 c:/software/altera/18.1/nios2eds/bin/gnu/h-x86_64-mingw32/bin/../lib/gcc/nios2-elf/5.3.0/../../../../../H-x86_64-mingw32/nios2-elf/lib\libc.a(lib_a-strlen.o)
 .debug_ranges  0x0000000000000598       0x10 c:/software/altera/18.1/nios2eds/bin/gnu/h-x86_64-mingw32/bin/../lib/gcc/nios2-elf/5.3.0/../../../../../H-x86_64-mingw32/nios2-elf/lib\libc.a(lib_a-__atexit.o)
 .debug_ranges  0x00000000000005a8       0x30 c:/software/altera/18.1/nios2eds/bin/gnu/h-x86_64-mingw32/bin/../lib/gcc/nios2-elf/5.3.0/../../../../../H-x86_64-mingw32/nios2-elf/lib\libc.a(lib_a-__call_atexit.o)
